
P_INZ.elf:     file format elf32-littlearm

Sections:
Idx Name          Size      VMA       LMA       File off  Algn
  0 .isr_vector   00000194  08000000  08000000  00010000  2**0
                  CONTENTS, ALLOC, LOAD, READONLY, DATA
  1 .text         0000442c  08000194  08000194  00010194  2**2
                  CONTENTS, ALLOC, LOAD, READONLY, CODE
  2 .rodata       000002d4  080045c0  080045c0  000145c0  2**2
                  CONTENTS, ALLOC, LOAD, READONLY, DATA
  3 .ARM.extab    00000000  08004894  08004894  00020218  2**0
                  CONTENTS
  4 .ARM          00000008  08004894  08004894  00014894  2**2
                  CONTENTS, ALLOC, LOAD, READONLY, DATA
  5 .preinit_array 00000000  0800489c  0800489c  00020218  2**0
                  CONTENTS, ALLOC, LOAD, DATA
  6 .init_array   00000004  0800489c  0800489c  0001489c  2**2
                  CONTENTS, ALLOC, LOAD, DATA
  7 .fini_array   00000004  080048a0  080048a0  000148a0  2**2
                  CONTENTS, ALLOC, LOAD, DATA
  8 .data         00000218  20000000  080048a4  00020000  2**2
                  CONTENTS, ALLOC, LOAD, DATA
  9 .bss          000006f4  20000218  08004abc  00020218  2**2
                  ALLOC
 10 ._user_heap_stack 00000604  2000090c  08004abc  0002090c  2**0
                  ALLOC
 11 .ARM.attributes 00000030  00000000  00000000  00020218  2**0
                  CONTENTS, READONLY
 12 .comment      0000007b  00000000  00000000  00020248  2**0
                  CONTENTS, READONLY
 13 .debug_frame  00000584  00000000  00000000  000202c4  2**2
                  CONTENTS, READONLY, DEBUGGING

Disassembly of section .text:

08000194 <__do_global_dtors_aux>:
 8000194:	b510      	push	{r4, lr}
 8000196:	4c05      	ldr	r4, [pc, #20]	; (80001ac <__do_global_dtors_aux+0x18>)
 8000198:	7823      	ldrb	r3, [r4, #0]
 800019a:	b933      	cbnz	r3, 80001aa <__do_global_dtors_aux+0x16>
 800019c:	4b04      	ldr	r3, [pc, #16]	; (80001b0 <__do_global_dtors_aux+0x1c>)
 800019e:	b113      	cbz	r3, 80001a6 <__do_global_dtors_aux+0x12>
 80001a0:	4804      	ldr	r0, [pc, #16]	; (80001b4 <__do_global_dtors_aux+0x20>)
 80001a2:	f3af 8000 	nop.w
 80001a6:	2301      	movs	r3, #1
 80001a8:	7023      	strb	r3, [r4, #0]
 80001aa:	bd10      	pop	{r4, pc}
 80001ac:	20000218 	.word	0x20000218
 80001b0:	00000000 	.word	0x00000000
 80001b4:	080045a8 	.word	0x080045a8

080001b8 <frame_dummy>:
 80001b8:	b508      	push	{r3, lr}
 80001ba:	4b03      	ldr	r3, [pc, #12]	; (80001c8 <frame_dummy+0x10>)
 80001bc:	b11b      	cbz	r3, 80001c6 <frame_dummy+0xe>
 80001be:	4903      	ldr	r1, [pc, #12]	; (80001cc <frame_dummy+0x14>)
 80001c0:	4803      	ldr	r0, [pc, #12]	; (80001d0 <frame_dummy+0x18>)
 80001c2:	f3af 8000 	nop.w
 80001c6:	bd08      	pop	{r3, pc}
 80001c8:	00000000 	.word	0x00000000
 80001cc:	2000021c 	.word	0x2000021c
 80001d0:	080045a8 	.word	0x080045a8

080001d4 <strcmp>:
 80001d4:	f810 2b01 	ldrb.w	r2, [r0], #1
 80001d8:	f811 3b01 	ldrb.w	r3, [r1], #1
 80001dc:	2a01      	cmp	r2, #1
 80001de:	bf28      	it	cs
 80001e0:	429a      	cmpcs	r2, r3
 80001e2:	d0f7      	beq.n	80001d4 <strcmp>
 80001e4:	1ad0      	subs	r0, r2, r3
 80001e6:	4770      	bx	lr

080001e8 <strlen>:
 80001e8:	4603      	mov	r3, r0
 80001ea:	f813 2b01 	ldrb.w	r2, [r3], #1
 80001ee:	2a00      	cmp	r2, #0
 80001f0:	d1fb      	bne.n	80001ea <strlen+0x2>
 80001f2:	1a18      	subs	r0, r3, r0
 80001f4:	3801      	subs	r0, #1
 80001f6:	4770      	bx	lr

080001f8 <__aeabi_drsub>:
 80001f8:	f081 4100 	eor.w	r1, r1, #2147483648	; 0x80000000
 80001fc:	e002      	b.n	8000204 <__adddf3>
 80001fe:	bf00      	nop

08000200 <__aeabi_dsub>:
 8000200:	f083 4300 	eor.w	r3, r3, #2147483648	; 0x80000000

08000204 <__adddf3>:
 8000204:	b530      	push	{r4, r5, lr}
 8000206:	ea4f 0441 	mov.w	r4, r1, lsl #1
 800020a:	ea4f 0543 	mov.w	r5, r3, lsl #1
 800020e:	ea94 0f05 	teq	r4, r5
 8000212:	bf08      	it	eq
 8000214:	ea90 0f02 	teqeq	r0, r2
 8000218:	bf1f      	itttt	ne
 800021a:	ea54 0c00 	orrsne.w	ip, r4, r0
 800021e:	ea55 0c02 	orrsne.w	ip, r5, r2
 8000222:	ea7f 5c64 	mvnsne.w	ip, r4, asr #21
 8000226:	ea7f 5c65 	mvnsne.w	ip, r5, asr #21
 800022a:	f000 80e2 	beq.w	80003f2 <__adddf3+0x1ee>
 800022e:	ea4f 5454 	mov.w	r4, r4, lsr #21
 8000232:	ebd4 5555 	rsbs	r5, r4, r5, lsr #21
 8000236:	bfb8      	it	lt
 8000238:	426d      	neglt	r5, r5
 800023a:	dd0c      	ble.n	8000256 <__adddf3+0x52>
 800023c:	442c      	add	r4, r5
 800023e:	ea80 0202 	eor.w	r2, r0, r2
 8000242:	ea81 0303 	eor.w	r3, r1, r3
 8000246:	ea82 0000 	eor.w	r0, r2, r0
 800024a:	ea83 0101 	eor.w	r1, r3, r1
 800024e:	ea80 0202 	eor.w	r2, r0, r2
 8000252:	ea81 0303 	eor.w	r3, r1, r3
 8000256:	2d36      	cmp	r5, #54	; 0x36
 8000258:	bf88      	it	hi
 800025a:	bd30      	pophi	{r4, r5, pc}
 800025c:	f011 4f00 	tst.w	r1, #2147483648	; 0x80000000
 8000260:	ea4f 3101 	mov.w	r1, r1, lsl #12
 8000264:	f44f 1c80 	mov.w	ip, #1048576	; 0x100000
 8000268:	ea4c 3111 	orr.w	r1, ip, r1, lsr #12
 800026c:	d002      	beq.n	8000274 <__adddf3+0x70>
 800026e:	4240      	negs	r0, r0
 8000270:	eb61 0141 	sbc.w	r1, r1, r1, lsl #1
 8000274:	f013 4f00 	tst.w	r3, #2147483648	; 0x80000000
 8000278:	ea4f 3303 	mov.w	r3, r3, lsl #12
 800027c:	ea4c 3313 	orr.w	r3, ip, r3, lsr #12
 8000280:	d002      	beq.n	8000288 <__adddf3+0x84>
 8000282:	4252      	negs	r2, r2
 8000284:	eb63 0343 	sbc.w	r3, r3, r3, lsl #1
 8000288:	ea94 0f05 	teq	r4, r5
 800028c:	f000 80a7 	beq.w	80003de <__adddf3+0x1da>
 8000290:	f1a4 0401 	sub.w	r4, r4, #1
 8000294:	f1d5 0e20 	rsbs	lr, r5, #32
 8000298:	db0d      	blt.n	80002b6 <__adddf3+0xb2>
 800029a:	fa02 fc0e 	lsl.w	ip, r2, lr
 800029e:	fa22 f205 	lsr.w	r2, r2, r5
 80002a2:	1880      	adds	r0, r0, r2
 80002a4:	f141 0100 	adc.w	r1, r1, #0
 80002a8:	fa03 f20e 	lsl.w	r2, r3, lr
 80002ac:	1880      	adds	r0, r0, r2
 80002ae:	fa43 f305 	asr.w	r3, r3, r5
 80002b2:	4159      	adcs	r1, r3
 80002b4:	e00e      	b.n	80002d4 <__adddf3+0xd0>
 80002b6:	f1a5 0520 	sub.w	r5, r5, #32
 80002ba:	f10e 0e20 	add.w	lr, lr, #32
 80002be:	2a01      	cmp	r2, #1
 80002c0:	fa03 fc0e 	lsl.w	ip, r3, lr
 80002c4:	bf28      	it	cs
 80002c6:	f04c 0c02 	orrcs.w	ip, ip, #2
 80002ca:	fa43 f305 	asr.w	r3, r3, r5
 80002ce:	18c0      	adds	r0, r0, r3
 80002d0:	eb51 71e3 	adcs.w	r1, r1, r3, asr #31
 80002d4:	f001 4500 	and.w	r5, r1, #2147483648	; 0x80000000
 80002d8:	d507      	bpl.n	80002ea <__adddf3+0xe6>
 80002da:	f04f 0e00 	mov.w	lr, #0
 80002de:	f1dc 0c00 	rsbs	ip, ip, #0
 80002e2:	eb7e 0000 	sbcs.w	r0, lr, r0
 80002e6:	eb6e 0101 	sbc.w	r1, lr, r1
 80002ea:	f5b1 1f80 	cmp.w	r1, #1048576	; 0x100000
 80002ee:	d31b      	bcc.n	8000328 <__adddf3+0x124>
 80002f0:	f5b1 1f00 	cmp.w	r1, #2097152	; 0x200000
 80002f4:	d30c      	bcc.n	8000310 <__adddf3+0x10c>
 80002f6:	0849      	lsrs	r1, r1, #1
 80002f8:	ea5f 0030 	movs.w	r0, r0, rrx
 80002fc:	ea4f 0c3c 	mov.w	ip, ip, rrx
 8000300:	f104 0401 	add.w	r4, r4, #1
 8000304:	ea4f 5244 	mov.w	r2, r4, lsl #21
 8000308:	f512 0f80 	cmn.w	r2, #4194304	; 0x400000
 800030c:	f080 809a 	bcs.w	8000444 <__adddf3+0x240>
 8000310:	f1bc 4f00 	cmp.w	ip, #2147483648	; 0x80000000
 8000314:	bf08      	it	eq
 8000316:	ea5f 0c50 	movseq.w	ip, r0, lsr #1
 800031a:	f150 0000 	adcs.w	r0, r0, #0
 800031e:	eb41 5104 	adc.w	r1, r1, r4, lsl #20
 8000322:	ea41 0105 	orr.w	r1, r1, r5
 8000326:	bd30      	pop	{r4, r5, pc}
 8000328:	ea5f 0c4c 	movs.w	ip, ip, lsl #1
 800032c:	4140      	adcs	r0, r0
 800032e:	eb41 0101 	adc.w	r1, r1, r1
 8000332:	f411 1f80 	tst.w	r1, #1048576	; 0x100000
 8000336:	f1a4 0401 	sub.w	r4, r4, #1
 800033a:	d1e9      	bne.n	8000310 <__adddf3+0x10c>
 800033c:	f091 0f00 	teq	r1, #0
 8000340:	bf04      	itt	eq
 8000342:	4601      	moveq	r1, r0
 8000344:	2000      	moveq	r0, #0
 8000346:	fab1 f381 	clz	r3, r1
 800034a:	bf08      	it	eq
 800034c:	3320      	addeq	r3, #32
 800034e:	f1a3 030b 	sub.w	r3, r3, #11
 8000352:	f1b3 0220 	subs.w	r2, r3, #32
 8000356:	da0c      	bge.n	8000372 <__adddf3+0x16e>
 8000358:	320c      	adds	r2, #12
 800035a:	dd08      	ble.n	800036e <__adddf3+0x16a>
 800035c:	f102 0c14 	add.w	ip, r2, #20
 8000360:	f1c2 020c 	rsb	r2, r2, #12
 8000364:	fa01 f00c 	lsl.w	r0, r1, ip
 8000368:	fa21 f102 	lsr.w	r1, r1, r2
 800036c:	e00c      	b.n	8000388 <__adddf3+0x184>
 800036e:	f102 0214 	add.w	r2, r2, #20
 8000372:	bfd8      	it	le
 8000374:	f1c2 0c20 	rsble	ip, r2, #32
 8000378:	fa01 f102 	lsl.w	r1, r1, r2
 800037c:	fa20 fc0c 	lsr.w	ip, r0, ip
 8000380:	bfdc      	itt	le
 8000382:	ea41 010c 	orrle.w	r1, r1, ip
 8000386:	4090      	lslle	r0, r2
 8000388:	1ae4      	subs	r4, r4, r3
 800038a:	bfa2      	ittt	ge
 800038c:	eb01 5104 	addge.w	r1, r1, r4, lsl #20
 8000390:	4329      	orrge	r1, r5
 8000392:	bd30      	popge	{r4, r5, pc}
 8000394:	ea6f 0404 	mvn.w	r4, r4
 8000398:	3c1f      	subs	r4, #31
 800039a:	da1c      	bge.n	80003d6 <__adddf3+0x1d2>
 800039c:	340c      	adds	r4, #12
 800039e:	dc0e      	bgt.n	80003be <__adddf3+0x1ba>
 80003a0:	f104 0414 	add.w	r4, r4, #20
 80003a4:	f1c4 0220 	rsb	r2, r4, #32
 80003a8:	fa20 f004 	lsr.w	r0, r0, r4
 80003ac:	fa01 f302 	lsl.w	r3, r1, r2
 80003b0:	ea40 0003 	orr.w	r0, r0, r3
 80003b4:	fa21 f304 	lsr.w	r3, r1, r4
 80003b8:	ea45 0103 	orr.w	r1, r5, r3
 80003bc:	bd30      	pop	{r4, r5, pc}
 80003be:	f1c4 040c 	rsb	r4, r4, #12
 80003c2:	f1c4 0220 	rsb	r2, r4, #32
 80003c6:	fa20 f002 	lsr.w	r0, r0, r2
 80003ca:	fa01 f304 	lsl.w	r3, r1, r4
 80003ce:	ea40 0003 	orr.w	r0, r0, r3
 80003d2:	4629      	mov	r1, r5
 80003d4:	bd30      	pop	{r4, r5, pc}
 80003d6:	fa21 f004 	lsr.w	r0, r1, r4
 80003da:	4629      	mov	r1, r5
 80003dc:	bd30      	pop	{r4, r5, pc}
 80003de:	f094 0f00 	teq	r4, #0
 80003e2:	f483 1380 	eor.w	r3, r3, #1048576	; 0x100000
 80003e6:	bf06      	itte	eq
 80003e8:	f481 1180 	eoreq.w	r1, r1, #1048576	; 0x100000
 80003ec:	3401      	addeq	r4, #1
 80003ee:	3d01      	subne	r5, #1
 80003f0:	e74e      	b.n	8000290 <__adddf3+0x8c>
 80003f2:	ea7f 5c64 	mvns.w	ip, r4, asr #21
 80003f6:	bf18      	it	ne
 80003f8:	ea7f 5c65 	mvnsne.w	ip, r5, asr #21
 80003fc:	d029      	beq.n	8000452 <__adddf3+0x24e>
 80003fe:	ea94 0f05 	teq	r4, r5
 8000402:	bf08      	it	eq
 8000404:	ea90 0f02 	teqeq	r0, r2
 8000408:	d005      	beq.n	8000416 <__adddf3+0x212>
 800040a:	ea54 0c00 	orrs.w	ip, r4, r0
 800040e:	bf04      	itt	eq
 8000410:	4619      	moveq	r1, r3
 8000412:	4610      	moveq	r0, r2
 8000414:	bd30      	pop	{r4, r5, pc}
 8000416:	ea91 0f03 	teq	r1, r3
 800041a:	bf1e      	ittt	ne
 800041c:	2100      	movne	r1, #0
 800041e:	2000      	movne	r0, #0
 8000420:	bd30      	popne	{r4, r5, pc}
 8000422:	ea5f 5c54 	movs.w	ip, r4, lsr #21
 8000426:	d105      	bne.n	8000434 <__adddf3+0x230>
 8000428:	0040      	lsls	r0, r0, #1
 800042a:	4149      	adcs	r1, r1
 800042c:	bf28      	it	cs
 800042e:	f041 4100 	orrcs.w	r1, r1, #2147483648	; 0x80000000
 8000432:	bd30      	pop	{r4, r5, pc}
 8000434:	f514 0480 	adds.w	r4, r4, #4194304	; 0x400000
 8000438:	bf3c      	itt	cc
 800043a:	f501 1180 	addcc.w	r1, r1, #1048576	; 0x100000
 800043e:	bd30      	popcc	{r4, r5, pc}
 8000440:	f001 4500 	and.w	r5, r1, #2147483648	; 0x80000000
 8000444:	f045 41fe 	orr.w	r1, r5, #2130706432	; 0x7f000000
 8000448:	f441 0170 	orr.w	r1, r1, #15728640	; 0xf00000
 800044c:	f04f 0000 	mov.w	r0, #0
 8000450:	bd30      	pop	{r4, r5, pc}
 8000452:	ea7f 5c64 	mvns.w	ip, r4, asr #21
 8000456:	bf1a      	itte	ne
 8000458:	4619      	movne	r1, r3
 800045a:	4610      	movne	r0, r2
 800045c:	ea7f 5c65 	mvnseq.w	ip, r5, asr #21
 8000460:	bf1c      	itt	ne
 8000462:	460b      	movne	r3, r1
 8000464:	4602      	movne	r2, r0
 8000466:	ea50 3401 	orrs.w	r4, r0, r1, lsl #12
 800046a:	bf06      	itte	eq
 800046c:	ea52 3503 	orrseq.w	r5, r2, r3, lsl #12
 8000470:	ea91 0f03 	teqeq	r1, r3
 8000474:	f441 2100 	orrne.w	r1, r1, #524288	; 0x80000
 8000478:	bd30      	pop	{r4, r5, pc}
 800047a:	bf00      	nop

0800047c <__aeabi_ui2d>:
 800047c:	f090 0f00 	teq	r0, #0
 8000480:	bf04      	itt	eq
 8000482:	2100      	moveq	r1, #0
 8000484:	4770      	bxeq	lr
 8000486:	b530      	push	{r4, r5, lr}
 8000488:	f44f 6480 	mov.w	r4, #1024	; 0x400
 800048c:	f104 0432 	add.w	r4, r4, #50	; 0x32
 8000490:	f04f 0500 	mov.w	r5, #0
 8000494:	f04f 0100 	mov.w	r1, #0
 8000498:	e750      	b.n	800033c <__adddf3+0x138>
 800049a:	bf00      	nop

0800049c <__aeabi_i2d>:
 800049c:	f090 0f00 	teq	r0, #0
 80004a0:	bf04      	itt	eq
 80004a2:	2100      	moveq	r1, #0
 80004a4:	4770      	bxeq	lr
 80004a6:	b530      	push	{r4, r5, lr}
 80004a8:	f44f 6480 	mov.w	r4, #1024	; 0x400
 80004ac:	f104 0432 	add.w	r4, r4, #50	; 0x32
 80004b0:	f010 4500 	ands.w	r5, r0, #2147483648	; 0x80000000
 80004b4:	bf48      	it	mi
 80004b6:	4240      	negmi	r0, r0
 80004b8:	f04f 0100 	mov.w	r1, #0
 80004bc:	e73e      	b.n	800033c <__adddf3+0x138>
 80004be:	bf00      	nop

080004c0 <__aeabi_f2d>:
 80004c0:	0042      	lsls	r2, r0, #1
 80004c2:	ea4f 01e2 	mov.w	r1, r2, asr #3
 80004c6:	ea4f 0131 	mov.w	r1, r1, rrx
 80004ca:	ea4f 7002 	mov.w	r0, r2, lsl #28
 80004ce:	bf1f      	itttt	ne
 80004d0:	f012 437f 	andsne.w	r3, r2, #4278190080	; 0xff000000
 80004d4:	f093 4f7f 	teqne	r3, #4278190080	; 0xff000000
 80004d8:	f081 5160 	eorne.w	r1, r1, #939524096	; 0x38000000
 80004dc:	4770      	bxne	lr
 80004de:	f032 427f 	bics.w	r2, r2, #4278190080	; 0xff000000
 80004e2:	bf08      	it	eq
 80004e4:	4770      	bxeq	lr
 80004e6:	f093 4f7f 	teq	r3, #4278190080	; 0xff000000
 80004ea:	bf04      	itt	eq
 80004ec:	f441 2100 	orreq.w	r1, r1, #524288	; 0x80000
 80004f0:	4770      	bxeq	lr
 80004f2:	b530      	push	{r4, r5, lr}
 80004f4:	f44f 7460 	mov.w	r4, #896	; 0x380
 80004f8:	f001 4500 	and.w	r5, r1, #2147483648	; 0x80000000
 80004fc:	f021 4100 	bic.w	r1, r1, #2147483648	; 0x80000000
 8000500:	e71c      	b.n	800033c <__adddf3+0x138>
 8000502:	bf00      	nop

08000504 <__aeabi_ul2d>:
 8000504:	ea50 0201 	orrs.w	r2, r0, r1
 8000508:	bf08      	it	eq
 800050a:	4770      	bxeq	lr
 800050c:	b530      	push	{r4, r5, lr}
 800050e:	f04f 0500 	mov.w	r5, #0
 8000512:	e00a      	b.n	800052a <__aeabi_l2d+0x16>

08000514 <__aeabi_l2d>:
 8000514:	ea50 0201 	orrs.w	r2, r0, r1
 8000518:	bf08      	it	eq
 800051a:	4770      	bxeq	lr
 800051c:	b530      	push	{r4, r5, lr}
 800051e:	f011 4500 	ands.w	r5, r1, #2147483648	; 0x80000000
 8000522:	d502      	bpl.n	800052a <__aeabi_l2d+0x16>
 8000524:	4240      	negs	r0, r0
 8000526:	eb61 0141 	sbc.w	r1, r1, r1, lsl #1
 800052a:	f44f 6480 	mov.w	r4, #1024	; 0x400
 800052e:	f104 0432 	add.w	r4, r4, #50	; 0x32
 8000532:	ea5f 5c91 	movs.w	ip, r1, lsr #22
 8000536:	f43f aed8 	beq.w	80002ea <__adddf3+0xe6>
 800053a:	f04f 0203 	mov.w	r2, #3
 800053e:	ea5f 0cdc 	movs.w	ip, ip, lsr #3
 8000542:	bf18      	it	ne
 8000544:	3203      	addne	r2, #3
 8000546:	ea5f 0cdc 	movs.w	ip, ip, lsr #3
 800054a:	bf18      	it	ne
 800054c:	3203      	addne	r2, #3
 800054e:	eb02 02dc 	add.w	r2, r2, ip, lsr #3
 8000552:	f1c2 0320 	rsb	r3, r2, #32
 8000556:	fa00 fc03 	lsl.w	ip, r0, r3
 800055a:	fa20 f002 	lsr.w	r0, r0, r2
 800055e:	fa01 fe03 	lsl.w	lr, r1, r3
 8000562:	ea40 000e 	orr.w	r0, r0, lr
 8000566:	fa21 f102 	lsr.w	r1, r1, r2
 800056a:	4414      	add	r4, r2
 800056c:	e6bd      	b.n	80002ea <__adddf3+0xe6>
 800056e:	bf00      	nop

08000570 <__aeabi_d2f>:
 8000570:	ea4f 0241 	mov.w	r2, r1, lsl #1
 8000574:	f1b2 43e0 	subs.w	r3, r2, #1879048192	; 0x70000000
 8000578:	bf24      	itt	cs
 800057a:	f5b3 1c00 	subscs.w	ip, r3, #2097152	; 0x200000
 800057e:	f1dc 5cfe 	rsbscs	ip, ip, #532676608	; 0x1fc00000
 8000582:	d90d      	bls.n	80005a0 <__aeabi_d2f+0x30>
 8000584:	f001 4c00 	and.w	ip, r1, #2147483648	; 0x80000000
 8000588:	ea4f 02c0 	mov.w	r2, r0, lsl #3
 800058c:	ea4c 7050 	orr.w	r0, ip, r0, lsr #29
 8000590:	f1b2 4f00 	cmp.w	r2, #2147483648	; 0x80000000
 8000594:	eb40 0083 	adc.w	r0, r0, r3, lsl #2
 8000598:	bf08      	it	eq
 800059a:	f020 0001 	biceq.w	r0, r0, #1
 800059e:	4770      	bx	lr
 80005a0:	f011 4f80 	tst.w	r1, #1073741824	; 0x40000000
 80005a4:	d121      	bne.n	80005ea <__aeabi_d2f+0x7a>
 80005a6:	f113 7238 	adds.w	r2, r3, #48234496	; 0x2e00000
 80005aa:	bfbc      	itt	lt
 80005ac:	f001 4000 	andlt.w	r0, r1, #2147483648	; 0x80000000
 80005b0:	4770      	bxlt	lr
 80005b2:	f441 1180 	orr.w	r1, r1, #1048576	; 0x100000
 80005b6:	ea4f 5252 	mov.w	r2, r2, lsr #21
 80005ba:	f1c2 0218 	rsb	r2, r2, #24
 80005be:	f1c2 0c20 	rsb	ip, r2, #32
 80005c2:	fa10 f30c 	lsls.w	r3, r0, ip
 80005c6:	fa20 f002 	lsr.w	r0, r0, r2
 80005ca:	bf18      	it	ne
 80005cc:	f040 0001 	orrne.w	r0, r0, #1
 80005d0:	ea4f 23c1 	mov.w	r3, r1, lsl #11
 80005d4:	ea4f 23d3 	mov.w	r3, r3, lsr #11
 80005d8:	fa03 fc0c 	lsl.w	ip, r3, ip
 80005dc:	ea40 000c 	orr.w	r0, r0, ip
 80005e0:	fa23 f302 	lsr.w	r3, r3, r2
 80005e4:	ea4f 0343 	mov.w	r3, r3, lsl #1
 80005e8:	e7cc      	b.n	8000584 <__aeabi_d2f+0x14>
 80005ea:	ea7f 5362 	mvns.w	r3, r2, asr #21
 80005ee:	d107      	bne.n	8000600 <__aeabi_d2f+0x90>
 80005f0:	ea50 3301 	orrs.w	r3, r0, r1, lsl #12
 80005f4:	bf1e      	ittt	ne
 80005f6:	f04f 40fe 	movne.w	r0, #2130706432	; 0x7f000000
 80005fa:	f440 0040 	orrne.w	r0, r0, #12582912	; 0xc00000
 80005fe:	4770      	bxne	lr
 8000600:	f001 4000 	and.w	r0, r1, #2147483648	; 0x80000000
 8000604:	f040 40fe 	orr.w	r0, r0, #2130706432	; 0x7f000000
 8000608:	f440 0000 	orr.w	r0, r0, #8388608	; 0x800000
 800060c:	4770      	bx	lr
 800060e:	bf00      	nop

08000610 <__aeabi_uldivmod>:
 8000610:	b953      	cbnz	r3, 8000628 <__aeabi_uldivmod+0x18>
 8000612:	b94a      	cbnz	r2, 8000628 <__aeabi_uldivmod+0x18>
 8000614:	2900      	cmp	r1, #0
 8000616:	bf08      	it	eq
 8000618:	2800      	cmpeq	r0, #0
 800061a:	bf1c      	itt	ne
 800061c:	f04f 31ff 	movne.w	r1, #4294967295
 8000620:	f04f 30ff 	movne.w	r0, #4294967295
 8000624:	f000 b972 	b.w	800090c <__aeabi_idiv0>
 8000628:	f1ad 0c08 	sub.w	ip, sp, #8
 800062c:	e96d ce04 	strd	ip, lr, [sp, #-16]!
 8000630:	f000 f806 	bl	8000640 <__udivmoddi4>
 8000634:	f8dd e004 	ldr.w	lr, [sp, #4]
 8000638:	e9dd 2302 	ldrd	r2, r3, [sp, #8]
 800063c:	b004      	add	sp, #16
 800063e:	4770      	bx	lr

08000640 <__udivmoddi4>:
 8000640:	e92d 47f0 	stmdb	sp!, {r4, r5, r6, r7, r8, r9, sl, lr}
 8000644:	9e08      	ldr	r6, [sp, #32]
 8000646:	4604      	mov	r4, r0
 8000648:	4688      	mov	r8, r1
 800064a:	2b00      	cmp	r3, #0
 800064c:	d14b      	bne.n	80006e6 <__udivmoddi4+0xa6>
 800064e:	428a      	cmp	r2, r1
 8000650:	4615      	mov	r5, r2
 8000652:	d967      	bls.n	8000724 <__udivmoddi4+0xe4>
 8000654:	fab2 f282 	clz	r2, r2
 8000658:	b14a      	cbz	r2, 800066e <__udivmoddi4+0x2e>
 800065a:	f1c2 0720 	rsb	r7, r2, #32
 800065e:	fa01 f302 	lsl.w	r3, r1, r2
 8000662:	fa20 f707 	lsr.w	r7, r0, r7
 8000666:	4095      	lsls	r5, r2
 8000668:	ea47 0803 	orr.w	r8, r7, r3
 800066c:	4094      	lsls	r4, r2
 800066e:	ea4f 4e15 	mov.w	lr, r5, lsr #16
 8000672:	0c23      	lsrs	r3, r4, #16
 8000674:	fbb8 f7fe 	udiv	r7, r8, lr
 8000678:	fa1f fc85 	uxth.w	ip, r5
 800067c:	fb0e 8817 	mls	r8, lr, r7, r8
 8000680:	ea43 4308 	orr.w	r3, r3, r8, lsl #16
 8000684:	fb07 f10c 	mul.w	r1, r7, ip
 8000688:	4299      	cmp	r1, r3
 800068a:	d909      	bls.n	80006a0 <__udivmoddi4+0x60>
 800068c:	18eb      	adds	r3, r5, r3
 800068e:	f107 30ff 	add.w	r0, r7, #4294967295
 8000692:	f080 811b 	bcs.w	80008cc <__udivmoddi4+0x28c>
 8000696:	4299      	cmp	r1, r3
 8000698:	f240 8118 	bls.w	80008cc <__udivmoddi4+0x28c>
 800069c:	3f02      	subs	r7, #2
 800069e:	442b      	add	r3, r5
 80006a0:	1a5b      	subs	r3, r3, r1
 80006a2:	b2a4      	uxth	r4, r4
 80006a4:	fbb3 f0fe 	udiv	r0, r3, lr
 80006a8:	fb0e 3310 	mls	r3, lr, r0, r3
 80006ac:	ea44 4403 	orr.w	r4, r4, r3, lsl #16
 80006b0:	fb00 fc0c 	mul.w	ip, r0, ip
 80006b4:	45a4      	cmp	ip, r4
 80006b6:	d909      	bls.n	80006cc <__udivmoddi4+0x8c>
 80006b8:	192c      	adds	r4, r5, r4
 80006ba:	f100 33ff 	add.w	r3, r0, #4294967295
 80006be:	f080 8107 	bcs.w	80008d0 <__udivmoddi4+0x290>
 80006c2:	45a4      	cmp	ip, r4
 80006c4:	f240 8104 	bls.w	80008d0 <__udivmoddi4+0x290>
 80006c8:	3802      	subs	r0, #2
 80006ca:	442c      	add	r4, r5
 80006cc:	ea40 4007 	orr.w	r0, r0, r7, lsl #16
 80006d0:	eba4 040c 	sub.w	r4, r4, ip
 80006d4:	2700      	movs	r7, #0
 80006d6:	b11e      	cbz	r6, 80006e0 <__udivmoddi4+0xa0>
 80006d8:	40d4      	lsrs	r4, r2
 80006da:	2300      	movs	r3, #0
 80006dc:	e9c6 4300 	strd	r4, r3, [r6]
 80006e0:	4639      	mov	r1, r7
 80006e2:	e8bd 87f0 	ldmia.w	sp!, {r4, r5, r6, r7, r8, r9, sl, pc}
 80006e6:	428b      	cmp	r3, r1
 80006e8:	d909      	bls.n	80006fe <__udivmoddi4+0xbe>
 80006ea:	2e00      	cmp	r6, #0
 80006ec:	f000 80eb 	beq.w	80008c6 <__udivmoddi4+0x286>
 80006f0:	2700      	movs	r7, #0
 80006f2:	e9c6 0100 	strd	r0, r1, [r6]
 80006f6:	4638      	mov	r0, r7
 80006f8:	4639      	mov	r1, r7
 80006fa:	e8bd 87f0 	ldmia.w	sp!, {r4, r5, r6, r7, r8, r9, sl, pc}
 80006fe:	fab3 f783 	clz	r7, r3
 8000702:	2f00      	cmp	r7, #0
 8000704:	d147      	bne.n	8000796 <__udivmoddi4+0x156>
 8000706:	428b      	cmp	r3, r1
 8000708:	d302      	bcc.n	8000710 <__udivmoddi4+0xd0>
 800070a:	4282      	cmp	r2, r0
 800070c:	f200 80fa 	bhi.w	8000904 <__udivmoddi4+0x2c4>
 8000710:	1a84      	subs	r4, r0, r2
 8000712:	eb61 0303 	sbc.w	r3, r1, r3
 8000716:	2001      	movs	r0, #1
 8000718:	4698      	mov	r8, r3
 800071a:	2e00      	cmp	r6, #0
 800071c:	d0e0      	beq.n	80006e0 <__udivmoddi4+0xa0>
 800071e:	e9c6 4800 	strd	r4, r8, [r6]
 8000722:	e7dd      	b.n	80006e0 <__udivmoddi4+0xa0>
 8000724:	b902      	cbnz	r2, 8000728 <__udivmoddi4+0xe8>
 8000726:	deff      	udf	#255	; 0xff
 8000728:	fab2 f282 	clz	r2, r2
 800072c:	2a00      	cmp	r2, #0
 800072e:	f040 808f 	bne.w	8000850 <__udivmoddi4+0x210>
 8000732:	1b49      	subs	r1, r1, r5
 8000734:	ea4f 4e15 	mov.w	lr, r5, lsr #16
 8000738:	fa1f f885 	uxth.w	r8, r5
 800073c:	2701      	movs	r7, #1
 800073e:	fbb1 fcfe 	udiv	ip, r1, lr
 8000742:	0c23      	lsrs	r3, r4, #16
 8000744:	fb0e 111c 	mls	r1, lr, ip, r1
 8000748:	ea43 4301 	orr.w	r3, r3, r1, lsl #16
 800074c:	fb08 f10c 	mul.w	r1, r8, ip
 8000750:	4299      	cmp	r1, r3
 8000752:	d907      	bls.n	8000764 <__udivmoddi4+0x124>
 8000754:	18eb      	adds	r3, r5, r3
 8000756:	f10c 30ff 	add.w	r0, ip, #4294967295
 800075a:	d202      	bcs.n	8000762 <__udivmoddi4+0x122>
 800075c:	4299      	cmp	r1, r3
 800075e:	f200 80cd 	bhi.w	80008fc <__udivmoddi4+0x2bc>
 8000762:	4684      	mov	ip, r0
 8000764:	1a59      	subs	r1, r3, r1
 8000766:	b2a3      	uxth	r3, r4
 8000768:	fbb1 f0fe 	udiv	r0, r1, lr
 800076c:	fb0e 1410 	mls	r4, lr, r0, r1
 8000770:	ea43 4404 	orr.w	r4, r3, r4, lsl #16
 8000774:	fb08 f800 	mul.w	r8, r8, r0
 8000778:	45a0      	cmp	r8, r4
 800077a:	d907      	bls.n	800078c <__udivmoddi4+0x14c>
 800077c:	192c      	adds	r4, r5, r4
 800077e:	f100 33ff 	add.w	r3, r0, #4294967295
 8000782:	d202      	bcs.n	800078a <__udivmoddi4+0x14a>
 8000784:	45a0      	cmp	r8, r4
 8000786:	f200 80b6 	bhi.w	80008f6 <__udivmoddi4+0x2b6>
 800078a:	4618      	mov	r0, r3
 800078c:	eba4 0408 	sub.w	r4, r4, r8
 8000790:	ea40 400c 	orr.w	r0, r0, ip, lsl #16
 8000794:	e79f      	b.n	80006d6 <__udivmoddi4+0x96>
 8000796:	f1c7 0c20 	rsb	ip, r7, #32
 800079a:	40bb      	lsls	r3, r7
 800079c:	fa22 fe0c 	lsr.w	lr, r2, ip
 80007a0:	ea4e 0e03 	orr.w	lr, lr, r3
 80007a4:	fa01 f407 	lsl.w	r4, r1, r7
 80007a8:	fa20 f50c 	lsr.w	r5, r0, ip
 80007ac:	fa21 f30c 	lsr.w	r3, r1, ip
 80007b0:	ea4f 481e 	mov.w	r8, lr, lsr #16
 80007b4:	4325      	orrs	r5, r4
 80007b6:	fbb3 f9f8 	udiv	r9, r3, r8
 80007ba:	0c2c      	lsrs	r4, r5, #16
 80007bc:	fb08 3319 	mls	r3, r8, r9, r3
 80007c0:	fa1f fa8e 	uxth.w	sl, lr
 80007c4:	ea44 4303 	orr.w	r3, r4, r3, lsl #16
 80007c8:	fb09 f40a 	mul.w	r4, r9, sl
 80007cc:	429c      	cmp	r4, r3
 80007ce:	fa02 f207 	lsl.w	r2, r2, r7
 80007d2:	fa00 f107 	lsl.w	r1, r0, r7
 80007d6:	d90b      	bls.n	80007f0 <__udivmoddi4+0x1b0>
 80007d8:	eb1e 0303 	adds.w	r3, lr, r3
 80007dc:	f109 30ff 	add.w	r0, r9, #4294967295
 80007e0:	f080 8087 	bcs.w	80008f2 <__udivmoddi4+0x2b2>
 80007e4:	429c      	cmp	r4, r3
 80007e6:	f240 8084 	bls.w	80008f2 <__udivmoddi4+0x2b2>
 80007ea:	f1a9 0902 	sub.w	r9, r9, #2
 80007ee:	4473      	add	r3, lr
 80007f0:	1b1b      	subs	r3, r3, r4
 80007f2:	b2ad      	uxth	r5, r5
 80007f4:	fbb3 f0f8 	udiv	r0, r3, r8
 80007f8:	fb08 3310 	mls	r3, r8, r0, r3
 80007fc:	ea45 4403 	orr.w	r4, r5, r3, lsl #16
 8000800:	fb00 fa0a 	mul.w	sl, r0, sl
 8000804:	45a2      	cmp	sl, r4
 8000806:	d908      	bls.n	800081a <__udivmoddi4+0x1da>
 8000808:	eb1e 0404 	adds.w	r4, lr, r4
 800080c:	f100 33ff 	add.w	r3, r0, #4294967295
 8000810:	d26b      	bcs.n	80008ea <__udivmoddi4+0x2aa>
 8000812:	45a2      	cmp	sl, r4
 8000814:	d969      	bls.n	80008ea <__udivmoddi4+0x2aa>
 8000816:	3802      	subs	r0, #2
 8000818:	4474      	add	r4, lr
 800081a:	ea40 4009 	orr.w	r0, r0, r9, lsl #16
 800081e:	fba0 8902 	umull	r8, r9, r0, r2
 8000822:	eba4 040a 	sub.w	r4, r4, sl
 8000826:	454c      	cmp	r4, r9
 8000828:	46c2      	mov	sl, r8
 800082a:	464b      	mov	r3, r9
 800082c:	d354      	bcc.n	80008d8 <__udivmoddi4+0x298>
 800082e:	d051      	beq.n	80008d4 <__udivmoddi4+0x294>
 8000830:	2e00      	cmp	r6, #0
 8000832:	d069      	beq.n	8000908 <__udivmoddi4+0x2c8>
 8000834:	ebb1 050a 	subs.w	r5, r1, sl
 8000838:	eb64 0403 	sbc.w	r4, r4, r3
 800083c:	fa04 fc0c 	lsl.w	ip, r4, ip
 8000840:	40fd      	lsrs	r5, r7
 8000842:	40fc      	lsrs	r4, r7
 8000844:	ea4c 0505 	orr.w	r5, ip, r5
 8000848:	e9c6 5400 	strd	r5, r4, [r6]
 800084c:	2700      	movs	r7, #0
 800084e:	e747      	b.n	80006e0 <__udivmoddi4+0xa0>
 8000850:	f1c2 0320 	rsb	r3, r2, #32
 8000854:	fa20 f703 	lsr.w	r7, r0, r3
 8000858:	4095      	lsls	r5, r2
 800085a:	fa01 f002 	lsl.w	r0, r1, r2
 800085e:	fa21 f303 	lsr.w	r3, r1, r3
 8000862:	ea4f 4e15 	mov.w	lr, r5, lsr #16
 8000866:	4338      	orrs	r0, r7
 8000868:	0c01      	lsrs	r1, r0, #16
 800086a:	fbb3 f7fe 	udiv	r7, r3, lr
 800086e:	fa1f f885 	uxth.w	r8, r5
 8000872:	fb0e 3317 	mls	r3, lr, r7, r3
 8000876:	ea41 4103 	orr.w	r1, r1, r3, lsl #16
 800087a:	fb07 f308 	mul.w	r3, r7, r8
 800087e:	428b      	cmp	r3, r1
 8000880:	fa04 f402 	lsl.w	r4, r4, r2
 8000884:	d907      	bls.n	8000896 <__udivmoddi4+0x256>
 8000886:	1869      	adds	r1, r5, r1
 8000888:	f107 3cff 	add.w	ip, r7, #4294967295
 800088c:	d22f      	bcs.n	80008ee <__udivmoddi4+0x2ae>
 800088e:	428b      	cmp	r3, r1
 8000890:	d92d      	bls.n	80008ee <__udivmoddi4+0x2ae>
 8000892:	3f02      	subs	r7, #2
 8000894:	4429      	add	r1, r5
 8000896:	1acb      	subs	r3, r1, r3
 8000898:	b281      	uxth	r1, r0
 800089a:	fbb3 f0fe 	udiv	r0, r3, lr
 800089e:	fb0e 3310 	mls	r3, lr, r0, r3
 80008a2:	ea41 4103 	orr.w	r1, r1, r3, lsl #16
 80008a6:	fb00 f308 	mul.w	r3, r0, r8
 80008aa:	428b      	cmp	r3, r1
 80008ac:	d907      	bls.n	80008be <__udivmoddi4+0x27e>
 80008ae:	1869      	adds	r1, r5, r1
 80008b0:	f100 3cff 	add.w	ip, r0, #4294967295
 80008b4:	d217      	bcs.n	80008e6 <__udivmoddi4+0x2a6>
 80008b6:	428b      	cmp	r3, r1
 80008b8:	d915      	bls.n	80008e6 <__udivmoddi4+0x2a6>
 80008ba:	3802      	subs	r0, #2
 80008bc:	4429      	add	r1, r5
 80008be:	1ac9      	subs	r1, r1, r3
 80008c0:	ea40 4707 	orr.w	r7, r0, r7, lsl #16
 80008c4:	e73b      	b.n	800073e <__udivmoddi4+0xfe>
 80008c6:	4637      	mov	r7, r6
 80008c8:	4630      	mov	r0, r6
 80008ca:	e709      	b.n	80006e0 <__udivmoddi4+0xa0>
 80008cc:	4607      	mov	r7, r0
 80008ce:	e6e7      	b.n	80006a0 <__udivmoddi4+0x60>
 80008d0:	4618      	mov	r0, r3
 80008d2:	e6fb      	b.n	80006cc <__udivmoddi4+0x8c>
 80008d4:	4541      	cmp	r1, r8
 80008d6:	d2ab      	bcs.n	8000830 <__udivmoddi4+0x1f0>
 80008d8:	ebb8 0a02 	subs.w	sl, r8, r2
 80008dc:	eb69 020e 	sbc.w	r2, r9, lr
 80008e0:	3801      	subs	r0, #1
 80008e2:	4613      	mov	r3, r2
 80008e4:	e7a4      	b.n	8000830 <__udivmoddi4+0x1f0>
 80008e6:	4660      	mov	r0, ip
 80008e8:	e7e9      	b.n	80008be <__udivmoddi4+0x27e>
 80008ea:	4618      	mov	r0, r3
 80008ec:	e795      	b.n	800081a <__udivmoddi4+0x1da>
 80008ee:	4667      	mov	r7, ip
 80008f0:	e7d1      	b.n	8000896 <__udivmoddi4+0x256>
 80008f2:	4681      	mov	r9, r0
 80008f4:	e77c      	b.n	80007f0 <__udivmoddi4+0x1b0>
 80008f6:	3802      	subs	r0, #2
 80008f8:	442c      	add	r4, r5
 80008fa:	e747      	b.n	800078c <__udivmoddi4+0x14c>
 80008fc:	f1ac 0c02 	sub.w	ip, ip, #2
 8000900:	442b      	add	r3, r5
 8000902:	e72f      	b.n	8000764 <__udivmoddi4+0x124>
 8000904:	4638      	mov	r0, r7
 8000906:	e708      	b.n	800071a <__udivmoddi4+0xda>
 8000908:	4637      	mov	r7, r6
 800090a:	e6e9      	b.n	80006e0 <__udivmoddi4+0xa0>

0800090c <__aeabi_idiv0>:
 800090c:	4770      	bx	lr
 800090e:	bf00      	nop

08000910 <MX_BlueNRG_MS_Init>:
 8000910:	b530      	push	{r4, r5, lr}
 8000912:	b089      	sub	sp, #36	; 0x24
 8000914:	2101      	movs	r1, #1
 8000916:	2000      	movs	r0, #0
 8000918:	f001 f8c4 	bl	8001aa4 <BSP_PB_Init>
 800091c:	2000      	movs	r0, #0
 800091e:	f001 f89b 	bl	8001a58 <BSP_LED_Init>
 8000922:	2000      	movs	r0, #0
 8000924:	f001 f936 	bl	8001b94 <BSP_COM_Init>
 8000928:	2000      	movs	r0, #0
 800092a:	f001 f90b 	bl	8001b44 <BSP_PB_GetState>
 800092e:	b2c0      	uxtb	r0, r0
 8000930:	4b3b      	ldr	r3, [pc, #236]	; (8000a20 <MX_BlueNRG_MS_Init+0x110>)
 8000932:	7018      	strb	r0, [r3, #0]
 8000934:	2100      	movs	r1, #0
 8000936:	483b      	ldr	r0, [pc, #236]	; (8000a24 <MX_BlueNRG_MS_Init+0x114>)
 8000938:	f003 fa3e 	bl	8003db8 <hci_init>
 800093c:	f10d 0116 	add.w	r1, sp, #22
 8000940:	f10d 0019 	add.w	r0, sp, #25
 8000944:	f003 f9af 	bl	8003ca6 <getBlueNRGVersion>
 8000948:	f003 f9ce 	bl	8003ce8 <hci_reset>
 800094c:	2064      	movs	r0, #100	; 0x64
 800094e:	f001 f9b5 	bl	8001cbc <HAL_Delay>
 8000952:	f89d 4019 	ldrb.w	r4, [sp, #25]
 8000956:	2c30      	cmp	r4, #48	; 0x30
 8000958:	d902      	bls.n	8000960 <MX_BlueNRG_MS_Init+0x50>
 800095a:	4b33      	ldr	r3, [pc, #204]	; (8000a28 <MX_BlueNRG_MS_Init+0x118>)
 800095c:	2201      	movs	r2, #1
 800095e:	701a      	strb	r2, [r3, #0]
 8000960:	f8bd 5016 	ldrh.w	r5, [sp, #22]
 8000964:	f001 f9a4 	bl	8001cb0 <HAL_GetTick>
 8000968:	442c      	add	r4, r5
 800096a:	4420      	add	r0, r4
 800096c:	f003 fc34 	bl	80041d8 <srand>
 8000970:	4c2e      	ldr	r4, [pc, #184]	; (8000a2c <MX_BlueNRG_MS_Init+0x11c>)
 8000972:	1d65      	adds	r5, r4, #5
 8000974:	f003 fc54 	bl	8004220 <rand>
 8000978:	f804 0b01 	strb.w	r0, [r4], #1
 800097c:	42ac      	cmp	r4, r5
 800097e:	d1f9      	bne.n	8000974 <MX_BlueNRG_MS_Init+0x64>
 8000980:	4a2a      	ldr	r2, [pc, #168]	; (8000a2c <MX_BlueNRG_MS_Init+0x11c>)
 8000982:	23d0      	movs	r3, #208	; 0xd0
 8000984:	7153      	strb	r3, [r2, #5]
 8000986:	2106      	movs	r1, #6
 8000988:	2000      	movs	r0, #0
 800098a:	f003 f93a 	bl	8003c02 <aci_hal_write_config_data>
 800098e:	f002 fffd 	bl	800398c <aci_gatt_init>
 8000992:	4b25      	ldr	r3, [pc, #148]	; (8000a28 <MX_BlueNRG_MS_Init+0x118>)
 8000994:	781b      	ldrb	r3, [r3, #0]
 8000996:	2b01      	cmp	r3, #1
 8000998:	d008      	beq.n	80009ac <MX_BlueNRG_MS_Init+0x9c>
 800099a:	f10d 031a 	add.w	r3, sp, #26
 800099e:	aa07      	add	r2, sp, #28
 80009a0:	f10d 011e 	add.w	r1, sp, #30
 80009a4:	2001      	movs	r0, #1
 80009a6:	f002 ff10 	bl	80037ca <aci_gap_init_IDB04A1>
 80009aa:	e00b      	b.n	80009c4 <MX_BlueNRG_MS_Init+0xb4>
 80009ac:	f10d 031a 	add.w	r3, sp, #26
 80009b0:	9301      	str	r3, [sp, #4]
 80009b2:	ab07      	add	r3, sp, #28
 80009b4:	9300      	str	r3, [sp, #0]
 80009b6:	f10d 031e 	add.w	r3, sp, #30
 80009ba:	2207      	movs	r2, #7
 80009bc:	2100      	movs	r1, #0
 80009be:	2001      	movs	r0, #1
 80009c0:	f002 feca 	bl	8003758 <aci_gap_init_IDB05A1>
 80009c4:	f8bd 101c 	ldrh.w	r1, [sp, #28]
 80009c8:	f8bd 001e 	ldrh.w	r0, [sp, #30]
 80009cc:	4b18      	ldr	r3, [pc, #96]	; (8000a30 <MX_BlueNRG_MS_Init+0x120>)
 80009ce:	9300      	str	r3, [sp, #0]
 80009d0:	2307      	movs	r3, #7
 80009d2:	2200      	movs	r2, #0
 80009d4:	f003 f88e 	bl	8003af4 <aci_gatt_update_char_value>
 80009d8:	b100      	cbz	r0, 80009dc <MX_BlueNRG_MS_Init+0xcc>
 80009da:	e7fe      	b.n	80009da <MX_BlueNRG_MS_Init+0xca>
 80009dc:	2001      	movs	r0, #1
 80009de:	9003      	str	r0, [sp, #12]
 80009e0:	4b14      	ldr	r3, [pc, #80]	; (8000a34 <MX_BlueNRG_MS_Init+0x124>)
 80009e2:	9302      	str	r3, [sp, #8]
 80009e4:	2100      	movs	r1, #0
 80009e6:	9101      	str	r1, [sp, #4]
 80009e8:	2310      	movs	r3, #16
 80009ea:	9300      	str	r3, [sp, #0]
 80009ec:	2307      	movs	r3, #7
 80009ee:	460a      	mov	r2, r1
 80009f0:	f002 ff20 	bl	8003834 <aci_gap_set_auth_requirement>
 80009f4:	b100      	cbz	r0, 80009f8 <MX_BlueNRG_MS_Init+0xe8>
 80009f6:	e7fe      	b.n	80009f6 <MX_BlueNRG_MS_Init+0xe6>
 80009f8:	f000 f824 	bl	8000a44 <Add_HWServW2ST_Service>
 80009fc:	b100      	cbz	r0, 8000a00 <MX_BlueNRG_MS_Init+0xf0>
 80009fe:	e7fe      	b.n	80009fe <MX_BlueNRG_MS_Init+0xee>
 8000a00:	f000 f8b0 	bl	8000b64 <Add_SWServW2ST_Service>
 8000a04:	b100      	cbz	r0, 8000a08 <MX_BlueNRG_MS_Init+0xf8>
 8000a06:	e7fe      	b.n	8000a06 <MX_BlueNRG_MS_Init+0xf6>
 8000a08:	2104      	movs	r1, #4
 8000a0a:	2001      	movs	r0, #1
 8000a0c:	f003 f929 	bl	8003c62 <aci_hal_set_tx_power_level>
 8000a10:	2301      	movs	r3, #1
 8000a12:	2200      	movs	r2, #0
 8000a14:	2104      	movs	r1, #4
 8000a16:	4608      	mov	r0, r1
 8000a18:	f002 ff4a 	bl	80038b0 <aci_gap_start_general_discovery_proc>
 8000a1c:	b009      	add	sp, #36	; 0x24
 8000a1e:	bd30      	pop	{r4, r5, pc}
 8000a20:	20000000 	.word	0x20000000
 8000a24:	08000e7d 	.word	0x08000e7d
 8000a28:	20000234 	.word	0x20000234
 8000a2c:	20000674 	.word	0x20000674
 8000a30:	080045c0 	.word	0x080045c0
 8000a34:	0001e240 	.word	0x0001e240

08000a38 <BSP_PB_Callback>:
 8000a38:	4b01      	ldr	r3, [pc, #4]	; (8000a40 <BSP_PB_Callback+0x8>)
 8000a3a:	2201      	movs	r2, #1
 8000a3c:	701a      	strb	r2, [r3, #0]
 8000a3e:	4770      	bx	lr
 8000a40:	20000235 	.word	0x20000235

08000a44 <Add_HWServW2ST_Service>:
 8000a44:	b530      	push	{r4, r5, lr}
 8000a46:	b087      	sub	sp, #28
 8000a48:	4941      	ldr	r1, [pc, #260]	; (8000b50 <Add_HWServW2ST_Service+0x10c>)
 8000a4a:	231b      	movs	r3, #27
 8000a4c:	700b      	strb	r3, [r1, #0]
 8000a4e:	23c5      	movs	r3, #197	; 0xc5
 8000a50:	704b      	strb	r3, [r1, #1]
 8000a52:	23d5      	movs	r3, #213	; 0xd5
 8000a54:	708b      	strb	r3, [r1, #2]
 8000a56:	23a5      	movs	r3, #165	; 0xa5
 8000a58:	70cb      	strb	r3, [r1, #3]
 8000a5a:	2002      	movs	r0, #2
 8000a5c:	7108      	strb	r0, [r1, #4]
 8000a5e:	2300      	movs	r3, #0
 8000a60:	714b      	strb	r3, [r1, #5]
 8000a62:	22b4      	movs	r2, #180	; 0xb4
 8000a64:	718a      	strb	r2, [r1, #6]
 8000a66:	229a      	movs	r2, #154	; 0x9a
 8000a68:	71ca      	strb	r2, [r1, #7]
 8000a6a:	22e1      	movs	r2, #225	; 0xe1
 8000a6c:	720a      	strb	r2, [r1, #8]
 8000a6e:	2211      	movs	r2, #17
 8000a70:	724a      	strb	r2, [r1, #9]
 8000a72:	2201      	movs	r2, #1
 8000a74:	728a      	strb	r2, [r1, #10]
 8000a76:	72cb      	strb	r3, [r1, #11]
 8000a78:	730b      	strb	r3, [r1, #12]
 8000a7a:	734b      	strb	r3, [r1, #13]
 8000a7c:	738b      	strb	r3, [r1, #14]
 8000a7e:	73cb      	strb	r3, [r1, #15]
 8000a80:	4b34      	ldr	r3, [pc, #208]	; (8000b54 <Add_HWServW2ST_Service+0x110>)
 8000a82:	9300      	str	r3, [sp, #0]
 8000a84:	2310      	movs	r3, #16
 8000a86:	f002 ff9e 	bl	80039c6 <aci_gatt_add_serv>
 8000a8a:	2800      	cmp	r0, #0
 8000a8c:	d15b      	bne.n	8000b46 <Add_HWServW2ST_Service+0x102>
 8000a8e:	4a32      	ldr	r2, [pc, #200]	; (8000b58 <Add_HWServW2ST_Service+0x114>)
 8000a90:	231b      	movs	r3, #27
 8000a92:	7013      	strb	r3, [r2, #0]
 8000a94:	23c5      	movs	r3, #197	; 0xc5
 8000a96:	7053      	strb	r3, [r2, #1]
 8000a98:	23d5      	movs	r3, #213	; 0xd5
 8000a9a:	7093      	strb	r3, [r2, #2]
 8000a9c:	23a5      	movs	r3, #165	; 0xa5
 8000a9e:	70d3      	strb	r3, [r2, #3]
 8000aa0:	2102      	movs	r1, #2
 8000aa2:	7111      	strb	r1, [r2, #4]
 8000aa4:	2300      	movs	r3, #0
 8000aa6:	7153      	strb	r3, [r2, #5]
 8000aa8:	2036      	movs	r0, #54	; 0x36
 8000aaa:	7190      	strb	r0, [r2, #6]
 8000aac:	20ac      	movs	r0, #172	; 0xac
 8000aae:	71d0      	strb	r0, [r2, #7]
 8000ab0:	20e1      	movs	r0, #225	; 0xe1
 8000ab2:	7210      	strb	r0, [r2, #8]
 8000ab4:	2011      	movs	r0, #17
 8000ab6:	7250      	strb	r0, [r2, #9]
 8000ab8:	2001      	movs	r0, #1
 8000aba:	7290      	strb	r0, [r2, #10]
 8000abc:	72d3      	strb	r3, [r2, #11]
 8000abe:	7313      	strb	r3, [r2, #12]
 8000ac0:	7353      	strb	r3, [r2, #13]
 8000ac2:	2014      	movs	r0, #20
 8000ac4:	7390      	strb	r0, [r2, #14]
 8000ac6:	73d3      	strb	r3, [r2, #15]
 8000ac8:	4822      	ldr	r0, [pc, #136]	; (8000b54 <Add_HWServW2ST_Service+0x110>)
 8000aca:	8800      	ldrh	r0, [r0, #0]
 8000acc:	4c23      	ldr	r4, [pc, #140]	; (8000b5c <Add_HWServW2ST_Service+0x118>)
 8000ace:	9405      	str	r4, [sp, #20]
 8000ad0:	9304      	str	r3, [sp, #16]
 8000ad2:	2410      	movs	r4, #16
 8000ad4:	9403      	str	r4, [sp, #12]
 8000ad6:	2404      	movs	r4, #4
 8000ad8:	9402      	str	r4, [sp, #8]
 8000ada:	9301      	str	r3, [sp, #4]
 8000adc:	2312      	movs	r3, #18
 8000ade:	9300      	str	r3, [sp, #0]
 8000ae0:	2308      	movs	r3, #8
 8000ae2:	f002 ffad 	bl	8003a40 <aci_gatt_add_char>
 8000ae6:	bb88      	cbnz	r0, 8000b4c <Add_HWServW2ST_Service+0x108>
 8000ae8:	4a1b      	ldr	r2, [pc, #108]	; (8000b58 <Add_HWServW2ST_Service+0x114>)
 8000aea:	231b      	movs	r3, #27
 8000aec:	7013      	strb	r3, [r2, #0]
 8000aee:	23c5      	movs	r3, #197	; 0xc5
 8000af0:	7053      	strb	r3, [r2, #1]
 8000af2:	23d5      	movs	r3, #213	; 0xd5
 8000af4:	7093      	strb	r3, [r2, #2]
 8000af6:	23a5      	movs	r3, #165	; 0xa5
 8000af8:	70d3      	strb	r3, [r2, #3]
 8000afa:	2102      	movs	r1, #2
 8000afc:	7111      	strb	r1, [r2, #4]
 8000afe:	2300      	movs	r3, #0
 8000b00:	7153      	strb	r3, [r2, #5]
 8000b02:	2036      	movs	r0, #54	; 0x36
 8000b04:	7190      	strb	r0, [r2, #6]
 8000b06:	20ac      	movs	r0, #172	; 0xac
 8000b08:	71d0      	strb	r0, [r2, #7]
 8000b0a:	20e1      	movs	r0, #225	; 0xe1
 8000b0c:	7210      	strb	r0, [r2, #8]
 8000b0e:	2011      	movs	r0, #17
 8000b10:	7250      	strb	r0, [r2, #9]
 8000b12:	2001      	movs	r0, #1
 8000b14:	7290      	strb	r0, [r2, #10]
 8000b16:	72d3      	strb	r3, [r2, #11]
 8000b18:	7313      	strb	r3, [r2, #12]
 8000b1a:	7353      	strb	r3, [r2, #13]
 8000b1c:	20e0      	movs	r0, #224	; 0xe0
 8000b1e:	7390      	strb	r0, [r2, #14]
 8000b20:	73d3      	strb	r3, [r2, #15]
 8000b22:	480c      	ldr	r0, [pc, #48]	; (8000b54 <Add_HWServW2ST_Service+0x110>)
 8000b24:	8800      	ldrh	r0, [r0, #0]
 8000b26:	4c0e      	ldr	r4, [pc, #56]	; (8000b60 <Add_HWServW2ST_Service+0x11c>)
 8000b28:	9405      	str	r4, [sp, #20]
 8000b2a:	9304      	str	r3, [sp, #16]
 8000b2c:	2410      	movs	r4, #16
 8000b2e:	9403      	str	r4, [sp, #12]
 8000b30:	2504      	movs	r5, #4
 8000b32:	9502      	str	r5, [sp, #8]
 8000b34:	9301      	str	r3, [sp, #4]
 8000b36:	9400      	str	r4, [sp, #0]
 8000b38:	2314      	movs	r3, #20
 8000b3a:	f002 ff81 	bl	8003a40 <aci_gatt_add_char>
 8000b3e:	2800      	cmp	r0, #0
 8000b40:	bf18      	it	ne
 8000b42:	2047      	movne	r0, #71	; 0x47
 8000b44:	e000      	b.n	8000b48 <Add_HWServW2ST_Service+0x104>
 8000b46:	2047      	movs	r0, #71	; 0x47
 8000b48:	b007      	add	sp, #28
 8000b4a:	bd30      	pop	{r4, r5, pc}
 8000b4c:	2047      	movs	r0, #71	; 0x47
 8000b4e:	e7fb      	b.n	8000b48 <Add_HWServW2ST_Service+0x104>
 8000b50:	20000698 	.word	0x20000698
 8000b54:	20000692 	.word	0x20000692
 8000b58:	20000680 	.word	0x20000680
 8000b5c:	2000067c 	.word	0x2000067c
 8000b60:	20000694 	.word	0x20000694

08000b64 <Add_SWServW2ST_Service>:
 8000b64:	b530      	push	{r4, r5, lr}
 8000b66:	b087      	sub	sp, #28
 8000b68:	4929      	ldr	r1, [pc, #164]	; (8000c10 <Add_SWServW2ST_Service+0xac>)
 8000b6a:	231b      	movs	r3, #27
 8000b6c:	700b      	strb	r3, [r1, #0]
 8000b6e:	23c5      	movs	r3, #197	; 0xc5
 8000b70:	704b      	strb	r3, [r1, #1]
 8000b72:	23d5      	movs	r3, #213	; 0xd5
 8000b74:	708b      	strb	r3, [r1, #2]
 8000b76:	23a5      	movs	r3, #165	; 0xa5
 8000b78:	70cb      	strb	r3, [r1, #3]
 8000b7a:	2002      	movs	r0, #2
 8000b7c:	7108      	strb	r0, [r1, #4]
 8000b7e:	2300      	movs	r3, #0
 8000b80:	714b      	strb	r3, [r1, #5]
 8000b82:	22b4      	movs	r2, #180	; 0xb4
 8000b84:	718a      	strb	r2, [r1, #6]
 8000b86:	229a      	movs	r2, #154	; 0x9a
 8000b88:	71ca      	strb	r2, [r1, #7]
 8000b8a:	22e1      	movs	r2, #225	; 0xe1
 8000b8c:	720a      	strb	r2, [r1, #8]
 8000b8e:	2211      	movs	r2, #17
 8000b90:	724a      	strb	r2, [r1, #9]
 8000b92:	7288      	strb	r0, [r1, #10]
 8000b94:	72cb      	strb	r3, [r1, #11]
 8000b96:	730b      	strb	r3, [r1, #12]
 8000b98:	734b      	strb	r3, [r1, #13]
 8000b9a:	738b      	strb	r3, [r1, #14]
 8000b9c:	73cb      	strb	r3, [r1, #15]
 8000b9e:	4b1d      	ldr	r3, [pc, #116]	; (8000c14 <Add_SWServW2ST_Service+0xb0>)
 8000ba0:	9300      	str	r3, [sp, #0]
 8000ba2:	2304      	movs	r3, #4
 8000ba4:	2201      	movs	r2, #1
 8000ba6:	f002 ff0e 	bl	80039c6 <aci_gatt_add_serv>
 8000baa:	bb70      	cbnz	r0, 8000c0a <Add_SWServW2ST_Service+0xa6>
 8000bac:	4a1a      	ldr	r2, [pc, #104]	; (8000c18 <Add_SWServW2ST_Service+0xb4>)
 8000bae:	231b      	movs	r3, #27
 8000bb0:	7013      	strb	r3, [r2, #0]
 8000bb2:	23c5      	movs	r3, #197	; 0xc5
 8000bb4:	7053      	strb	r3, [r2, #1]
 8000bb6:	23d5      	movs	r3, #213	; 0xd5
 8000bb8:	7093      	strb	r3, [r2, #2]
 8000bba:	23a5      	movs	r3, #165	; 0xa5
 8000bbc:	70d3      	strb	r3, [r2, #3]
 8000bbe:	2102      	movs	r1, #2
 8000bc0:	7111      	strb	r1, [r2, #4]
 8000bc2:	2300      	movs	r3, #0
 8000bc4:	7153      	strb	r3, [r2, #5]
 8000bc6:	2036      	movs	r0, #54	; 0x36
 8000bc8:	7190      	strb	r0, [r2, #6]
 8000bca:	20ac      	movs	r0, #172	; 0xac
 8000bcc:	71d0      	strb	r0, [r2, #7]
 8000bce:	20e1      	movs	r0, #225	; 0xe1
 8000bd0:	7210      	strb	r0, [r2, #8]
 8000bd2:	2011      	movs	r0, #17
 8000bd4:	7250      	strb	r0, [r2, #9]
 8000bd6:	2001      	movs	r0, #1
 8000bd8:	7290      	strb	r0, [r2, #10]
 8000bda:	72d3      	strb	r3, [r2, #11]
 8000bdc:	7313      	strb	r3, [r2, #12]
 8000bde:	7350      	strb	r0, [r2, #13]
 8000be0:	7393      	strb	r3, [r2, #14]
 8000be2:	73d3      	strb	r3, [r2, #15]
 8000be4:	480b      	ldr	r0, [pc, #44]	; (8000c14 <Add_SWServW2ST_Service+0xb0>)
 8000be6:	8800      	ldrh	r0, [r0, #0]
 8000be8:	4c0c      	ldr	r4, [pc, #48]	; (8000c1c <Add_SWServW2ST_Service+0xb8>)
 8000bea:	9405      	str	r4, [sp, #20]
 8000bec:	9304      	str	r3, [sp, #16]
 8000bee:	2410      	movs	r4, #16
 8000bf0:	9403      	str	r4, [sp, #12]
 8000bf2:	2504      	movs	r5, #4
 8000bf4:	9502      	str	r5, [sp, #8]
 8000bf6:	9301      	str	r3, [sp, #4]
 8000bf8:	9400      	str	r4, [sp, #0]
 8000bfa:	2308      	movs	r3, #8
 8000bfc:	f002 ff20 	bl	8003a40 <aci_gatt_add_char>
 8000c00:	2800      	cmp	r0, #0
 8000c02:	bf18      	it	ne
 8000c04:	2047      	movne	r0, #71	; 0x47
 8000c06:	b007      	add	sp, #28
 8000c08:	bd30      	pop	{r4, r5, pc}
 8000c0a:	2047      	movs	r0, #71	; 0x47
 8000c0c:	e7fb      	b.n	8000c06 <Add_SWServW2ST_Service+0xa2>
 8000c0e:	bf00      	nop
 8000c10:	20000698 	.word	0x20000698
 8000c14:	20000690 	.word	0x20000690
 8000c18:	20000680 	.word	0x20000680
 8000c1c:	2000067e 	.word	0x2000067e

08000c20 <Acc_Update>:
 8000c20:	b570      	push	{r4, r5, r6, lr}
 8000c22:	b088      	sub	sp, #32
 8000c24:	4606      	mov	r6, r0
 8000c26:	460d      	mov	r5, r1
 8000c28:	4614      	mov	r4, r2
 8000c2a:	f001 f841 	bl	8001cb0 <HAL_GetTick>
 8000c2e:	08c0      	lsrs	r0, r0, #3
 8000c30:	f88d 000c 	strb.w	r0, [sp, #12]
 8000c34:	f001 f83c 	bl	8001cb0 <HAL_GetTick>
 8000c38:	0ac0      	lsrs	r0, r0, #11
 8000c3a:	f88d 000d 	strb.w	r0, [sp, #13]
 8000c3e:	6873      	ldr	r3, [r6, #4]
 8000c40:	425a      	negs	r2, r3
 8000c42:	f88d 200e 	strb.w	r2, [sp, #14]
 8000c46:	1213      	asrs	r3, r2, #8
 8000c48:	f88d 300f 	strb.w	r3, [sp, #15]
 8000c4c:	6833      	ldr	r3, [r6, #0]
 8000c4e:	f88d 3010 	strb.w	r3, [sp, #16]
 8000c52:	121b      	asrs	r3, r3, #8
 8000c54:	f88d 3011 	strb.w	r3, [sp, #17]
 8000c58:	68b3      	ldr	r3, [r6, #8]
 8000c5a:	425a      	negs	r2, r3
 8000c5c:	f88d 2012 	strb.w	r2, [sp, #18]
 8000c60:	1213      	asrs	r3, r2, #8
 8000c62:	f88d 3013 	strb.w	r3, [sp, #19]
 8000c66:	686b      	ldr	r3, [r5, #4]
 8000c68:	f88d 3014 	strb.w	r3, [sp, #20]
 8000c6c:	121b      	asrs	r3, r3, #8
 8000c6e:	f88d 3015 	strb.w	r3, [sp, #21]
 8000c72:	682b      	ldr	r3, [r5, #0]
 8000c74:	f88d 3016 	strb.w	r3, [sp, #22]
 8000c78:	121b      	asrs	r3, r3, #8
 8000c7a:	f88d 3017 	strb.w	r3, [sp, #23]
 8000c7e:	68ab      	ldr	r3, [r5, #8]
 8000c80:	f88d 3018 	strb.w	r3, [sp, #24]
 8000c84:	121b      	asrs	r3, r3, #8
 8000c86:	f88d 3019 	strb.w	r3, [sp, #25]
 8000c8a:	6863      	ldr	r3, [r4, #4]
 8000c8c:	f88d 301a 	strb.w	r3, [sp, #26]
 8000c90:	121b      	asrs	r3, r3, #8
 8000c92:	f88d 301b 	strb.w	r3, [sp, #27]
 8000c96:	6823      	ldr	r3, [r4, #0]
 8000c98:	f88d 301c 	strb.w	r3, [sp, #28]
 8000c9c:	121b      	asrs	r3, r3, #8
 8000c9e:	f88d 301d 	strb.w	r3, [sp, #29]
 8000ca2:	68a3      	ldr	r3, [r4, #8]
 8000ca4:	f88d 301e 	strb.w	r3, [sp, #30]
 8000ca8:	121b      	asrs	r3, r3, #8
 8000caa:	f88d 301f 	strb.w	r3, [sp, #31]
 8000cae:	4b07      	ldr	r3, [pc, #28]	; (8000ccc <Acc_Update+0xac>)
 8000cb0:	8819      	ldrh	r1, [r3, #0]
 8000cb2:	4b07      	ldr	r3, [pc, #28]	; (8000cd0 <Acc_Update+0xb0>)
 8000cb4:	8818      	ldrh	r0, [r3, #0]
 8000cb6:	ab03      	add	r3, sp, #12
 8000cb8:	9300      	str	r3, [sp, #0]
 8000cba:	2314      	movs	r3, #20
 8000cbc:	2200      	movs	r2, #0
 8000cbe:	f002 ff19 	bl	8003af4 <aci_gatt_update_char_value>
 8000cc2:	2800      	cmp	r0, #0
 8000cc4:	bf18      	it	ne
 8000cc6:	2047      	movne	r0, #71	; 0x47
 8000cc8:	b008      	add	sp, #32
 8000cca:	bd70      	pop	{r4, r5, r6, pc}
 8000ccc:	20000694 	.word	0x20000694
 8000cd0:	20000692 	.word	0x20000692

08000cd4 <BlueMS_Environmental_Update>:
 8000cd4:	b530      	push	{r4, r5, lr}
 8000cd6:	b085      	sub	sp, #20
 8000cd8:	4604      	mov	r4, r0
 8000cda:	460d      	mov	r5, r1
 8000cdc:	f000 ffe8 	bl	8001cb0 <HAL_GetTick>
 8000ce0:	08c0      	lsrs	r0, r0, #3
 8000ce2:	f88d 0008 	strb.w	r0, [sp, #8]
 8000ce6:	f000 ffe3 	bl	8001cb0 <HAL_GetTick>
 8000cea:	0ac0      	lsrs	r0, r0, #11
 8000cec:	f88d 0009 	strb.w	r0, [sp, #9]
 8000cf0:	f88d 400a 	strb.w	r4, [sp, #10]
 8000cf4:	1223      	asrs	r3, r4, #8
 8000cf6:	f88d 300b 	strb.w	r3, [sp, #11]
 8000cfa:	1423      	asrs	r3, r4, #16
 8000cfc:	f88d 300c 	strb.w	r3, [sp, #12]
 8000d00:	1624      	asrs	r4, r4, #24
 8000d02:	f88d 400d 	strb.w	r4, [sp, #13]
 8000d06:	f88d 500e 	strb.w	r5, [sp, #14]
 8000d0a:	122d      	asrs	r5, r5, #8
 8000d0c:	f88d 500f 	strb.w	r5, [sp, #15]
 8000d10:	4b07      	ldr	r3, [pc, #28]	; (8000d30 <BlueMS_Environmental_Update+0x5c>)
 8000d12:	8819      	ldrh	r1, [r3, #0]
 8000d14:	4b07      	ldr	r3, [pc, #28]	; (8000d34 <BlueMS_Environmental_Update+0x60>)
 8000d16:	8818      	ldrh	r0, [r3, #0]
 8000d18:	ab02      	add	r3, sp, #8
 8000d1a:	9300      	str	r3, [sp, #0]
 8000d1c:	2308      	movs	r3, #8
 8000d1e:	2200      	movs	r2, #0
 8000d20:	f002 fee8 	bl	8003af4 <aci_gatt_update_char_value>
 8000d24:	2800      	cmp	r0, #0
 8000d26:	bf18      	it	ne
 8000d28:	2047      	movne	r0, #71	; 0x47
 8000d2a:	b005      	add	sp, #20
 8000d2c:	bd30      	pop	{r4, r5, pc}
 8000d2e:	bf00      	nop
 8000d30:	2000067c 	.word	0x2000067c
 8000d34:	20000692 	.word	0x20000692

08000d38 <Read_Request_CB>:
 8000d38:	e92d 4bd8 	stmdb	sp!, {r3, r4, r6, r7, r8, r9, fp, lr}
 8000d3c:	4b39      	ldr	r3, [pc, #228]	; (8000e24 <Read_Request_CB+0xec>)
 8000d3e:	881b      	ldrh	r3, [r3, #0]
 8000d40:	3301      	adds	r3, #1
 8000d42:	4298      	cmp	r0, r3
 8000d44:	d00a      	beq.n	8000d5c <Read_Request_CB+0x24>
 8000d46:	4b38      	ldr	r3, [pc, #224]	; (8000e28 <Read_Request_CB+0xf0>)
 8000d48:	881b      	ldrh	r3, [r3, #0]
 8000d4a:	3301      	adds	r3, #1
 8000d4c:	4298      	cmp	r0, r3
 8000d4e:	d00b      	beq.n	8000d68 <Read_Request_CB+0x30>
 8000d50:	4b36      	ldr	r3, [pc, #216]	; (8000e2c <Read_Request_CB+0xf4>)
 8000d52:	8818      	ldrh	r0, [r3, #0]
 8000d54:	2800      	cmp	r0, #0
 8000d56:	d162      	bne.n	8000e1e <Read_Request_CB+0xe6>
 8000d58:	e8bd 8bd8 	ldmia.w	sp!, {r3, r4, r6, r7, r8, r9, fp, pc}
 8000d5c:	4a34      	ldr	r2, [pc, #208]	; (8000e30 <Read_Request_CB+0xf8>)
 8000d5e:	4935      	ldr	r1, [pc, #212]	; (8000e34 <Read_Request_CB+0xfc>)
 8000d60:	4835      	ldr	r0, [pc, #212]	; (8000e38 <Read_Request_CB+0x100>)
 8000d62:	f7ff ff5d 	bl	8000c20 <Acc_Update>
 8000d66:	e7f3      	b.n	8000d50 <Read_Request_CB+0x18>
 8000d68:	f003 fa5a 	bl	8004220 <rand>
 8000d6c:	4604      	mov	r4, r0
 8000d6e:	f003 fa57 	bl	8004220 <rand>
 8000d72:	4606      	mov	r6, r0
 8000d74:	ea4f 79e4 	mov.w	r9, r4, asr #31
 8000d78:	ea4f 0389 	mov.w	r3, r9, lsl #2
 8000d7c:	ea4f 0b84 	mov.w	fp, r4, lsl #2
 8000d80:	ea43 7c94 	orr.w	ip, r3, r4, lsr #30
 8000d84:	f06f 4200 	mvn.w	r2, #2147483648	; 0x80000000
 8000d88:	2300      	movs	r3, #0
 8000d8a:	eb1b 0004 	adds.w	r0, fp, r4
 8000d8e:	eb4c 0109 	adc.w	r1, ip, r9
 8000d92:	f7ff fc3d 	bl	8000610 <__aeabi_uldivmod>
 8000d96:	f7ff fbb5 	bl	8000504 <__aeabi_ul2d>
 8000d9a:	2200      	movs	r2, #0
 8000d9c:	4b27      	ldr	r3, [pc, #156]	; (8000e3c <Read_Request_CB+0x104>)
 8000d9e:	f7ff fa31 	bl	8000204 <__adddf3>
 8000da2:	f7ff fbe5 	bl	8000570 <__aeabi_d2f>
 8000da6:	eef2 7a04 	vmov.f32	s15, #36	; 0x41200000  10.0
 8000daa:	ee07 0a10 	vmov	s14, r0
 8000dae:	ee67 7a27 	vmul.f32	s15, s14, s15
 8000db2:	eefd 7ae7 	vcvt.s32.f32	s15, s15
 8000db6:	ee17 3a90 	vmov	r3, s15
 8000dba:	b21c      	sxth	r4, r3
 8000dbc:	17f7      	asrs	r7, r6, #31
 8000dbe:	19b2      	adds	r2, r6, r6
 8000dc0:	eb47 0307 	adc.w	r3, r7, r7
 8000dc4:	eb12 0806 	adds.w	r8, r2, r6
 8000dc8:	eb43 0907 	adc.w	r9, r3, r7
 8000dcc:	ea4f 1149 	mov.w	r1, r9, lsl #5
 8000dd0:	ea41 61d8 	orr.w	r1, r1, r8, lsr #27
 8000dd4:	ea4f 1048 	mov.w	r0, r8, lsl #5
 8000dd8:	eb10 0b08 	adds.w	fp, r0, r8
 8000ddc:	eb41 0c09 	adc.w	ip, r1, r9
 8000de0:	f06f 4200 	mvn.w	r2, #2147483648	; 0x80000000
 8000de4:	2300      	movs	r3, #0
 8000de6:	eb1b 0006 	adds.w	r0, fp, r6
 8000dea:	eb4c 0107 	adc.w	r1, ip, r7
 8000dee:	f7ff fc0f 	bl	8000610 <__aeabi_uldivmod>
 8000df2:	f7ff fb87 	bl	8000504 <__aeabi_ul2d>
 8000df6:	2200      	movs	r2, #0
 8000df8:	4b11      	ldr	r3, [pc, #68]	; (8000e40 <Read_Request_CB+0x108>)
 8000dfa:	f7ff fa03 	bl	8000204 <__adddf3>
 8000dfe:	f7ff fbb7 	bl	8000570 <__aeabi_d2f>
 8000e02:	eddf 7a10 	vldr	s15, [pc, #64]	; 8000e44 <Read_Request_CB+0x10c>
 8000e06:	ee07 0a10 	vmov	s14, r0
 8000e0a:	ee67 7a27 	vmul.f32	s15, s14, s15
 8000e0e:	4621      	mov	r1, r4
 8000e10:	eefd 7ae7 	vcvt.s32.f32	s15, s15
 8000e14:	ee17 0a90 	vmov	r0, s15
 8000e18:	f7ff ff5c 	bl	8000cd4 <BlueMS_Environmental_Update>
 8000e1c:	e798      	b.n	8000d50 <Read_Request_CB+0x18>
 8000e1e:	f002 fecf 	bl	8003bc0 <aci_gatt_allow_read>
 8000e22:	e799      	b.n	8000d58 <Read_Request_CB+0x20>
 8000e24:	20000694 	.word	0x20000694
 8000e28:	2000067c 	.word	0x2000067c
 8000e2c:	2000023c 	.word	0x2000023c
 8000e30:	2000024c 	.word	0x2000024c
 8000e34:	20000240 	.word	0x20000240
 8000e38:	2000025c 	.word	0x2000025c
 8000e3c:	403b0000 	.word	0x403b0000
 8000e40:	408f4000 	.word	0x408f4000
 8000e44:	42c80000 	.word	0x42c80000

08000e48 <GAP_DisconnectionComplete_CB>:
 8000e48:	2300      	movs	r3, #0
 8000e4a:	4a04      	ldr	r2, [pc, #16]	; (8000e5c <GAP_DisconnectionComplete_CB+0x14>)
 8000e4c:	6013      	str	r3, [r2, #0]
 8000e4e:	4a04      	ldr	r2, [pc, #16]	; (8000e60 <GAP_DisconnectionComplete_CB+0x18>)
 8000e50:	2101      	movs	r1, #1
 8000e52:	7011      	strb	r1, [r2, #0]
 8000e54:	4a03      	ldr	r2, [pc, #12]	; (8000e64 <GAP_DisconnectionComplete_CB+0x1c>)
 8000e56:	7013      	strb	r3, [r2, #0]
 8000e58:	4770      	bx	lr
 8000e5a:	bf00      	nop
 8000e5c:	20000238 	.word	0x20000238
 8000e60:	20000001 	.word	0x20000001
 8000e64:	20000258 	.word	0x20000258

08000e68 <GAP_ConnectionComplete_CB>:
 8000e68:	4b02      	ldr	r3, [pc, #8]	; (8000e74 <GAP_ConnectionComplete_CB+0xc>)
 8000e6a:	2201      	movs	r2, #1
 8000e6c:	601a      	str	r2, [r3, #0]
 8000e6e:	4b02      	ldr	r3, [pc, #8]	; (8000e78 <GAP_ConnectionComplete_CB+0x10>)
 8000e70:	8019      	strh	r1, [r3, #0]
 8000e72:	4770      	bx	lr
 8000e74:	20000238 	.word	0x20000238
 8000e78:	2000023c 	.word	0x2000023c

08000e7c <user_notify>:
 8000e7c:	b508      	push	{r3, lr}
 8000e7e:	7803      	ldrb	r3, [r0, #0]
 8000e80:	2b04      	cmp	r3, #4
 8000e82:	d000      	beq.n	8000e86 <user_notify+0xa>
 8000e84:	bd08      	pop	{r3, pc}
 8000e86:	7843      	ldrb	r3, [r0, #1]
 8000e88:	2b3e      	cmp	r3, #62	; 0x3e
 8000e8a:	d006      	beq.n	8000e9a <user_notify+0x1e>
 8000e8c:	2bff      	cmp	r3, #255	; 0xff
 8000e8e:	d00d      	beq.n	8000eac <user_notify+0x30>
 8000e90:	2b05      	cmp	r3, #5
 8000e92:	d1f7      	bne.n	8000e84 <user_notify+0x8>
 8000e94:	f7ff ffd8 	bl	8000e48 <GAP_DisconnectionComplete_CB>
 8000e98:	e7f4      	b.n	8000e84 <user_notify+0x8>
 8000e9a:	78c3      	ldrb	r3, [r0, #3]
 8000e9c:	2b01      	cmp	r3, #1
 8000e9e:	d1f1      	bne.n	8000e84 <user_notify+0x8>
 8000ea0:	f8b0 1005 	ldrh.w	r1, [r0, #5]
 8000ea4:	3009      	adds	r0, #9
 8000ea6:	f7ff ffdf 	bl	8000e68 <GAP_ConnectionComplete_CB>
 8000eaa:	e7eb      	b.n	8000e84 <user_notify+0x8>
 8000eac:	f8b0 2003 	ldrh.w	r2, [r0, #3]
 8000eb0:	f640 4314 	movw	r3, #3092	; 0xc14
 8000eb4:	429a      	cmp	r2, r3
 8000eb6:	d1e5      	bne.n	8000e84 <user_notify+0x8>
 8000eb8:	f8b0 0007 	ldrh.w	r0, [r0, #7]
 8000ebc:	f7ff ff3c 	bl	8000d38 <Read_Request_CB>
 8000ec0:	e7e0      	b.n	8000e84 <user_notify+0x8>
	...

08000ec4 <HCI_TL_SPI_Init>:
 8000ec4:	b570      	push	{r4, r5, r6, lr}
 8000ec6:	b086      	sub	sp, #24
 8000ec8:	2400      	movs	r4, #0
 8000eca:	9400      	str	r4, [sp, #0]
 8000ecc:	4b15      	ldr	r3, [pc, #84]	; (8000f24 <HCI_TL_SPI_Init+0x60>)
 8000ece:	6b1a      	ldr	r2, [r3, #48]	; 0x30
 8000ed0:	f042 0201 	orr.w	r2, r2, #1
 8000ed4:	631a      	str	r2, [r3, #48]	; 0x30
 8000ed6:	6b1b      	ldr	r3, [r3, #48]	; 0x30
 8000ed8:	f003 0301 	and.w	r3, r3, #1
 8000edc:	9300      	str	r3, [sp, #0]
 8000ede:	9b00      	ldr	r3, [sp, #0]
 8000ee0:	2601      	movs	r6, #1
 8000ee2:	9601      	str	r6, [sp, #4]
 8000ee4:	4b10      	ldr	r3, [pc, #64]	; (8000f28 <HCI_TL_SPI_Init+0x64>)
 8000ee6:	9302      	str	r3, [sp, #8]
 8000ee8:	9403      	str	r4, [sp, #12]
 8000eea:	4d10      	ldr	r5, [pc, #64]	; (8000f2c <HCI_TL_SPI_Init+0x68>)
 8000eec:	a901      	add	r1, sp, #4
 8000eee:	4628      	mov	r0, r5
 8000ef0:	f000 fffa 	bl	8001ee8 <HAL_GPIO_Init>
 8000ef4:	f44f 7380 	mov.w	r3, #256	; 0x100
 8000ef8:	9301      	str	r3, [sp, #4]
 8000efa:	9602      	str	r6, [sp, #8]
 8000efc:	9403      	str	r4, [sp, #12]
 8000efe:	9404      	str	r4, [sp, #16]
 8000f00:	a901      	add	r1, sp, #4
 8000f02:	4628      	mov	r0, r5
 8000f04:	f000 fff0 	bl	8001ee8 <HAL_GPIO_Init>
 8000f08:	2302      	movs	r3, #2
 8000f0a:	9301      	str	r3, [sp, #4]
 8000f0c:	9602      	str	r6, [sp, #8]
 8000f0e:	9403      	str	r4, [sp, #12]
 8000f10:	9404      	str	r4, [sp, #16]
 8000f12:	a901      	add	r1, sp, #4
 8000f14:	4628      	mov	r0, r5
 8000f16:	f000 ffe7 	bl	8001ee8 <HAL_GPIO_Init>
 8000f1a:	f000 fccf 	bl	80018bc <BSP_SPI1_Init>
 8000f1e:	b006      	add	sp, #24
 8000f20:	bd70      	pop	{r4, r5, r6, pc}
 8000f22:	bf00      	nop
 8000f24:	40023800 	.word	0x40023800
 8000f28:	10110000 	.word	0x10110000
 8000f2c:	40020000 	.word	0x40020000

08000f30 <HCI_TL_SPI_DeInit>:
 8000f30:	b510      	push	{r4, lr}
 8000f32:	4c08      	ldr	r4, [pc, #32]	; (8000f54 <HCI_TL_SPI_DeInit+0x24>)
 8000f34:	2101      	movs	r1, #1
 8000f36:	4620      	mov	r0, r4
 8000f38:	f001 f90c 	bl	8002154 <HAL_GPIO_DeInit>
 8000f3c:	2102      	movs	r1, #2
 8000f3e:	4620      	mov	r0, r4
 8000f40:	f001 f908 	bl	8002154 <HAL_GPIO_DeInit>
 8000f44:	f44f 7180 	mov.w	r1, #256	; 0x100
 8000f48:	4620      	mov	r0, r4
 8000f4a:	f001 f903 	bl	8002154 <HAL_GPIO_DeInit>
 8000f4e:	2000      	movs	r0, #0
 8000f50:	bd10      	pop	{r4, pc}
 8000f52:	bf00      	nop
 8000f54:	40020000 	.word	0x40020000

08000f58 <HCI_TL_SPI_Reset>:
 8000f58:	b510      	push	{r4, lr}
 8000f5a:	4c0a      	ldr	r4, [pc, #40]	; (8000f84 <HCI_TL_SPI_Reset+0x2c>)
 8000f5c:	2200      	movs	r2, #0
 8000f5e:	f44f 7180 	mov.w	r1, #256	; 0x100
 8000f62:	4620      	mov	r0, r4
 8000f64:	f001 f9b2 	bl	80022cc <HAL_GPIO_WritePin>
 8000f68:	2005      	movs	r0, #5
 8000f6a:	f000 fea7 	bl	8001cbc <HAL_Delay>
 8000f6e:	2201      	movs	r2, #1
 8000f70:	f44f 7180 	mov.w	r1, #256	; 0x100
 8000f74:	4620      	mov	r0, r4
 8000f76:	f001 f9a9 	bl	80022cc <HAL_GPIO_WritePin>
 8000f7a:	2005      	movs	r0, #5
 8000f7c:	f000 fe9e 	bl	8001cbc <HAL_Delay>
 8000f80:	2000      	movs	r0, #0
 8000f82:	bd10      	pop	{r4, pc}
 8000f84:	40020000 	.word	0x40020000

08000f88 <HCI_TL_SPI_Receive>:
 8000f88:	b5f0      	push	{r4, r5, r6, r7, lr}
 8000f8a:	b085      	sub	sp, #20
 8000f8c:	4606      	mov	r6, r0
 8000f8e:	460c      	mov	r4, r1
 8000f90:	23ff      	movs	r3, #255	; 0xff
 8000f92:	f88d 300f 	strb.w	r3, [sp, #15]
 8000f96:	230b      	movs	r3, #11
 8000f98:	f88d 3008 	strb.w	r3, [sp, #8]
 8000f9c:	2200      	movs	r2, #0
 8000f9e:	f88d 2009 	strb.w	r2, [sp, #9]
 8000fa2:	f88d 200a 	strb.w	r2, [sp, #10]
 8000fa6:	f88d 200b 	strb.w	r2, [sp, #11]
 8000faa:	f88d 200c 	strb.w	r2, [sp, #12]
 8000fae:	2102      	movs	r1, #2
 8000fb0:	481a      	ldr	r0, [pc, #104]	; (800101c <HCI_TL_SPI_Receive+0x94>)
 8000fb2:	f001 f98b 	bl	80022cc <HAL_GPIO_WritePin>
 8000fb6:	2205      	movs	r2, #5
 8000fb8:	4669      	mov	r1, sp
 8000fba:	a802      	add	r0, sp, #8
 8000fbc:	f000 fc48 	bl	8001850 <BSP_SPI1_SendRecv>
 8000fc0:	f89d 3000 	ldrb.w	r3, [sp]
 8000fc4:	2b02      	cmp	r3, #2
 8000fc6:	d008      	beq.n	8000fda <HCI_TL_SPI_Receive+0x52>
 8000fc8:	2400      	movs	r4, #0
 8000fca:	2201      	movs	r2, #1
 8000fcc:	2102      	movs	r1, #2
 8000fce:	4813      	ldr	r0, [pc, #76]	; (800101c <HCI_TL_SPI_Receive+0x94>)
 8000fd0:	f001 f97c 	bl	80022cc <HAL_GPIO_WritePin>
 8000fd4:	4620      	mov	r0, r4
 8000fd6:	b005      	add	sp, #20
 8000fd8:	bdf0      	pop	{r4, r5, r6, r7, pc}
 8000fda:	f89d 5004 	ldrb.w	r5, [sp, #4]
 8000fde:	f89d 3003 	ldrb.w	r3, [sp, #3]
 8000fe2:	ea53 2505 	orrs.w	r5, r3, r5, lsl #8
 8000fe6:	d015      	beq.n	8001014 <HCI_TL_SPI_Receive+0x8c>
 8000fe8:	42a5      	cmp	r5, r4
 8000fea:	bf28      	it	cs
 8000fec:	4625      	movcs	r5, r4
 8000fee:	b19d      	cbz	r5, 8001018 <HCI_TL_SPI_Receive+0x90>
 8000ff0:	2400      	movs	r4, #0
 8000ff2:	2701      	movs	r7, #1
 8000ff4:	463a      	mov	r2, r7
 8000ff6:	f10d 010e 	add.w	r1, sp, #14
 8000ffa:	f10d 000f 	add.w	r0, sp, #15
 8000ffe:	f000 fc27 	bl	8001850 <BSP_SPI1_SendRecv>
 8001002:	f89d 300e 	ldrb.w	r3, [sp, #14]
 8001006:	5533      	strb	r3, [r6, r4]
 8001008:	3401      	adds	r4, #1
 800100a:	b2e4      	uxtb	r4, r4
 800100c:	b2a3      	uxth	r3, r4
 800100e:	42ab      	cmp	r3, r5
 8001010:	d3f0      	bcc.n	8000ff4 <HCI_TL_SPI_Receive+0x6c>
 8001012:	e7da      	b.n	8000fca <HCI_TL_SPI_Receive+0x42>
 8001014:	2400      	movs	r4, #0
 8001016:	e7d8      	b.n	8000fca <HCI_TL_SPI_Receive+0x42>
 8001018:	2400      	movs	r4, #0
 800101a:	e7d6      	b.n	8000fca <HCI_TL_SPI_Receive+0x42>
 800101c:	40020000 	.word	0x40020000

08001020 <HCI_TL_SPI_Send>:
 8001020:	e92d 43f0 	stmdb	sp!, {r4, r5, r6, r7, r8, r9, lr}
 8001024:	b085      	sub	sp, #20
 8001026:	4681      	mov	r9, r0
 8001028:	4688      	mov	r8, r1
 800102a:	230a      	movs	r3, #10
 800102c:	f88d 3008 	strb.w	r3, [sp, #8]
 8001030:	2300      	movs	r3, #0
 8001032:	f88d 3009 	strb.w	r3, [sp, #9]
 8001036:	f88d 300a 	strb.w	r3, [sp, #10]
 800103a:	f88d 300b 	strb.w	r3, [sp, #11]
 800103e:	f88d 300c 	strb.w	r3, [sp, #12]
 8001042:	f000 fe35 	bl	8001cb0 <HAL_GetTick>
 8001046:	4606      	mov	r6, r0
 8001048:	4d1b      	ldr	r5, [pc, #108]	; (80010b8 <HCI_TL_SPI_Send+0x98>)
 800104a:	2700      	movs	r7, #0
 800104c:	2402      	movs	r4, #2
 800104e:	e00e      	b.n	800106e <HCI_TL_SPI_Send+0x4e>
 8001050:	f06f 0002 	mvn.w	r0, #2
 8001054:	b005      	add	sp, #20
 8001056:	e8bd 83f0 	ldmia.w	sp!, {r4, r5, r6, r7, r8, r9, pc}
 800105a:	2201      	movs	r2, #1
 800105c:	4621      	mov	r1, r4
 800105e:	4628      	mov	r0, r5
 8001060:	f001 f934 	bl	80022cc <HAL_GPIO_WritePin>
 8001064:	f000 fe24 	bl	8001cb0 <HAL_GetTick>
 8001068:	1b80      	subs	r0, r0, r6
 800106a:	280f      	cmp	r0, #15
 800106c:	d8f0      	bhi.n	8001050 <HCI_TL_SPI_Send+0x30>
 800106e:	463a      	mov	r2, r7
 8001070:	4621      	mov	r1, r4
 8001072:	4628      	mov	r0, r5
 8001074:	f001 f92a 	bl	80022cc <HAL_GPIO_WritePin>
 8001078:	2205      	movs	r2, #5
 800107a:	4669      	mov	r1, sp
 800107c:	a802      	add	r0, sp, #8
 800107e:	f000 fbe7 	bl	8001850 <BSP_SPI1_SendRecv>
 8001082:	f89d 3000 	ldrb.w	r3, [sp]
 8001086:	2b02      	cmp	r3, #2
 8001088:	d1e7      	bne.n	800105a <HCI_TL_SPI_Send+0x3a>
 800108a:	f89d 3001 	ldrb.w	r3, [sp, #1]
 800108e:	4543      	cmp	r3, r8
 8001090:	d3e3      	bcc.n	800105a <HCI_TL_SPI_Send+0x3a>
 8001092:	4642      	mov	r2, r8
 8001094:	4909      	ldr	r1, [pc, #36]	; (80010bc <HCI_TL_SPI_Send+0x9c>)
 8001096:	4648      	mov	r0, r9
 8001098:	f000 fbda 	bl	8001850 <BSP_SPI1_SendRecv>
 800109c:	2201      	movs	r2, #1
 800109e:	2102      	movs	r1, #2
 80010a0:	4805      	ldr	r0, [pc, #20]	; (80010b8 <HCI_TL_SPI_Send+0x98>)
 80010a2:	f001 f913 	bl	80022cc <HAL_GPIO_WritePin>
 80010a6:	f000 fe03 	bl	8001cb0 <HAL_GetTick>
 80010aa:	1b80      	subs	r0, r0, r6
 80010ac:	280f      	cmp	r0, #15
 80010ae:	bf8c      	ite	hi
 80010b0:	f06f 0002 	mvnhi.w	r0, #2
 80010b4:	2000      	movls	r0, #0
 80010b6:	e7cd      	b.n	8001054 <HCI_TL_SPI_Send+0x34>
 80010b8:	40020000 	.word	0x40020000
 80010bc:	20000268 	.word	0x20000268

080010c0 <hci_tl_lowlevel_isr>:
 80010c0:	b570      	push	{r4, r5, r6, lr}
 80010c2:	4d07      	ldr	r5, [pc, #28]	; (80010e0 <hci_tl_lowlevel_isr+0x20>)
 80010c4:	2401      	movs	r4, #1
 80010c6:	2600      	movs	r6, #0
 80010c8:	4621      	mov	r1, r4
 80010ca:	4628      	mov	r0, r5
 80010cc:	f001 f8ec 	bl	80022a8 <HAL_GPIO_ReadPin>
 80010d0:	2801      	cmp	r0, #1
 80010d2:	d104      	bne.n	80010de <hci_tl_lowlevel_isr+0x1e>
 80010d4:	4630      	mov	r0, r6
 80010d6:	f002 ff97 	bl	8004008 <hci_notify_asynch_evt>
 80010da:	2800      	cmp	r0, #0
 80010dc:	d0f4      	beq.n	80010c8 <hci_tl_lowlevel_isr+0x8>
 80010de:	bd70      	pop	{r4, r5, r6, pc}
 80010e0:	40020000 	.word	0x40020000

080010e4 <hci_tl_lowlevel_init>:
 80010e4:	b510      	push	{r4, lr}
 80010e6:	b088      	sub	sp, #32
 80010e8:	4b11      	ldr	r3, [pc, #68]	; (8001130 <hci_tl_lowlevel_init+0x4c>)
 80010ea:	9301      	str	r3, [sp, #4]
 80010ec:	4b11      	ldr	r3, [pc, #68]	; (8001134 <hci_tl_lowlevel_init+0x50>)
 80010ee:	9302      	str	r3, [sp, #8]
 80010f0:	4b11      	ldr	r3, [pc, #68]	; (8001138 <hci_tl_lowlevel_init+0x54>)
 80010f2:	9305      	str	r3, [sp, #20]
 80010f4:	4b11      	ldr	r3, [pc, #68]	; (800113c <hci_tl_lowlevel_init+0x58>)
 80010f6:	9304      	str	r3, [sp, #16]
 80010f8:	4b11      	ldr	r3, [pc, #68]	; (8001140 <hci_tl_lowlevel_init+0x5c>)
 80010fa:	9303      	str	r3, [sp, #12]
 80010fc:	4b11      	ldr	r3, [pc, #68]	; (8001144 <hci_tl_lowlevel_init+0x60>)
 80010fe:	9307      	str	r3, [sp, #28]
 8001100:	a801      	add	r0, sp, #4
 8001102:	f002 fe83 	bl	8003e0c <hci_register_io_bus>
 8001106:	4c10      	ldr	r4, [pc, #64]	; (8001148 <hci_tl_lowlevel_init+0x64>)
 8001108:	2101      	movs	r1, #1
 800110a:	4620      	mov	r0, r4
 800110c:	f000 fe92 	bl	8001e34 <HAL_EXTI_GetHandle>
 8001110:	4a0e      	ldr	r2, [pc, #56]	; (800114c <hci_tl_lowlevel_init+0x68>)
 8001112:	2100      	movs	r1, #0
 8001114:	4620      	mov	r0, r4
 8001116:	f000 fe86 	bl	8001e26 <HAL_EXTI_RegisterCallback>
 800111a:	2200      	movs	r2, #0
 800111c:	4611      	mov	r1, r2
 800111e:	2006      	movs	r0, #6
 8001120:	f000 fdfe 	bl	8001d20 <HAL_NVIC_SetPriority>
 8001124:	2006      	movs	r0, #6
 8001126:	f000 fe3f 	bl	8001da8 <HAL_NVIC_EnableIRQ>
 800112a:	b008      	add	sp, #32
 800112c:	bd10      	pop	{r4, pc}
 800112e:	bf00      	nop
 8001130:	08000ec5 	.word	0x08000ec5
 8001134:	08000f31 	.word	0x08000f31
 8001138:	08001021 	.word	0x08001021
 800113c:	08000f89 	.word	0x08000f89
 8001140:	08000f59 	.word	0x08000f59
 8001144:	0800187d 	.word	0x0800187d
 8001148:	200006a8 	.word	0x200006a8
 800114c:	080010c1 	.word	0x080010c1

08001150 <BLE_SET_DISC_DEV_NO>:
 8001150:	2803      	cmp	r0, #3
 8001152:	bf9d      	ittte	ls
 8001154:	4b02      	ldrls	r3, [pc, #8]	; (8001160 <BLE_SET_DISC_DEV_NO+0x10>)
 8001156:	7018      	strbls	r0, [r3, #0]
 8001158:	2000      	movls	r0, #0
 800115a:	2001      	movhi	r0, #1
 800115c:	4770      	bx	lr
 800115e:	bf00      	nop
 8001160:	2000036c 	.word	0x2000036c

08001164 <BLE_GET_DEV_DATA>:
 8001164:	4770      	bx	lr
	...

08001168 <BLE_CONNECT_TO_DEVICE>:
 8001168:	4b14      	ldr	r3, [pc, #80]	; (80011bc <BLE_CONNECT_TO_DEVICE+0x54>)
 800116a:	781b      	ldrb	r3, [r3, #0]
 800116c:	4283      	cmp	r3, r0
 800116e:	d801      	bhi.n	8001174 <BLE_CONNECT_TO_DEVICE+0xc>
 8001170:	2001      	movs	r0, #1
 8001172:	4770      	bx	lr
 8001174:	b530      	push	{r4, r5, lr}
 8001176:	b089      	sub	sp, #36	; 0x24
 8001178:	460d      	mov	r5, r1
 800117a:	eb00 0440 	add.w	r4, r0, r0, lsl #1
 800117e:	4b10      	ldr	r3, [pc, #64]	; (80011c0 <BLE_CONNECT_TO_DEVICE+0x58>)
 8001180:	5c1a      	ldrb	r2, [r3, r0]
 8001182:	f44f 717a 	mov.w	r1, #1000	; 0x3e8
 8001186:	9106      	str	r1, [sp, #24]
 8001188:	9105      	str	r1, [sp, #20]
 800118a:	233c      	movs	r3, #60	; 0x3c
 800118c:	9304      	str	r3, [sp, #16]
 800118e:	2100      	movs	r1, #0
 8001190:	9103      	str	r1, [sp, #12]
 8001192:	2009      	movs	r0, #9
 8001194:	9002      	str	r0, [sp, #8]
 8001196:	9001      	str	r0, [sp, #4]
 8001198:	9100      	str	r1, [sp, #0]
 800119a:	4b0a      	ldr	r3, [pc, #40]	; (80011c4 <BLE_CONNECT_TO_DEVICE+0x5c>)
 800119c:	eb03 0344 	add.w	r3, r3, r4, lsl #1
 80011a0:	f44f 4180 	mov.w	r1, #16384	; 0x4000
 80011a4:	4608      	mov	r0, r1
 80011a6:	f002 fbaa 	bl	80038fe <aci_gap_create_connection>
 80011aa:	4604      	mov	r4, r0
 80011ac:	4628      	mov	r0, r5
 80011ae:	f7ff ffcf 	bl	8001150 <BLE_SET_DISC_DEV_NO>
 80011b2:	1c20      	adds	r0, r4, #0
 80011b4:	bf18      	it	ne
 80011b6:	2001      	movne	r0, #1
 80011b8:	b009      	add	sp, #36	; 0x24
 80011ba:	bd30      	pop	{r4, r5, pc}
 80011bc:	20000367 	.word	0x20000367
 80011c0:	20000710 	.word	0x20000710
 80011c4:	200006b4 	.word	0x200006b4

080011c8 <BLE_START_SCAN>:
 80011c8:	b508      	push	{r3, lr}
 80011ca:	4b09      	ldr	r3, [pc, #36]	; (80011f0 <BLE_START_SCAN+0x28>)
 80011cc:	781b      	ldrb	r3, [r3, #0]
 80011ce:	2b02      	cmp	r3, #2
 80011d0:	d001      	beq.n	80011d6 <BLE_START_SCAN+0xe>
 80011d2:	2001      	movs	r0, #1
 80011d4:	bd08      	pop	{r3, pc}
 80011d6:	4b07      	ldr	r3, [pc, #28]	; (80011f4 <BLE_START_SCAN+0x2c>)
 80011d8:	6018      	str	r0, [r3, #0]
 80011da:	2301      	movs	r3, #1
 80011dc:	2200      	movs	r2, #0
 80011de:	f44f 4180 	mov.w	r1, #16384	; 0x4000
 80011e2:	4608      	mov	r0, r1
 80011e4:	f002 fb64 	bl	80038b0 <aci_gap_start_general_discovery_proc>
 80011e8:	3000      	adds	r0, #0
 80011ea:	bf18      	it	ne
 80011ec:	2001      	movne	r0, #1
 80011ee:	e7f1      	b.n	80011d4 <BLE_START_SCAN+0xc>
 80011f0:	20000002 	.word	0x20000002
 80011f4:	20000368 	.word	0x20000368

080011f8 <BLE_WRITE_CHAR>:
 80011f8:	490c      	ldr	r1, [pc, #48]	; (800122c <BLE_WRITE_CHAR+0x34>)
 80011fa:	7809      	ldrb	r1, [r1, #0]
 80011fc:	2902      	cmp	r1, #2
 80011fe:	d001      	beq.n	8001204 <BLE_WRITE_CHAR+0xc>
 8001200:	2001      	movs	r0, #1
 8001202:	4770      	bx	lr
 8001204:	b510      	push	{r4, lr}
 8001206:	461c      	mov	r4, r3
 8001208:	4611      	mov	r1, r2
 800120a:	9a03      	ldr	r2, [sp, #12]
 800120c:	4b08      	ldr	r3, [pc, #32]	; (8001230 <BLE_WRITE_CHAR+0x38>)
 800120e:	601a      	str	r2, [r3, #0]
 8001210:	eb00 1000 	add.w	r0, r0, r0, lsl #4
 8001214:	9b02      	ldr	r3, [sp, #8]
 8001216:	4622      	mov	r2, r4
 8001218:	8889      	ldrh	r1, [r1, #4]
 800121a:	4c06      	ldr	r4, [pc, #24]	; (8001234 <BLE_WRITE_CHAR+0x3c>)
 800121c:	f834 0010 	ldrh.w	r0, [r4, r0, lsl #1]
 8001220:	f002 fc9c 	bl	8003b5c <aci_gatt_write_charac_value>
 8001224:	3000      	adds	r0, #0
 8001226:	bf18      	it	ne
 8001228:	2001      	movne	r0, #1
 800122a:	bd10      	pop	{r4, pc}
 800122c:	20000002 	.word	0x20000002
 8001230:	20000368 	.word	0x20000368
 8001234:	20000720 	.word	0x20000720

08001238 <HAL_UART_RxCpltCallback>:
 8001238:	b508      	push	{r3, lr}
 800123a:	6802      	ldr	r2, [r0, #0]
 800123c:	4b03      	ldr	r3, [pc, #12]	; (800124c <HAL_UART_RxCpltCallback+0x14>)
 800123e:	429a      	cmp	r2, r3
 8001240:	d000      	beq.n	8001244 <HAL_UART_RxCpltCallback+0xc>
 8001242:	bd08      	pop	{r3, pc}
 8001244:	f000 fa64 	bl	8001710 <STATION_UART_RxCpltCallback>
 8001248:	e7fb      	b.n	8001242 <HAL_UART_RxCpltCallback+0xa>
 800124a:	bf00      	nop
 800124c:	40011000 	.word	0x40011000

08001250 <SystemClock_Config>:
 8001250:	b500      	push	{lr}
 8001252:	b095      	sub	sp, #84	; 0x54
 8001254:	2230      	movs	r2, #48	; 0x30
 8001256:	2100      	movs	r1, #0
 8001258:	a808      	add	r0, sp, #32
 800125a:	f002 ffb4 	bl	80041c6 <memset>
 800125e:	2300      	movs	r3, #0
 8001260:	9303      	str	r3, [sp, #12]
 8001262:	9304      	str	r3, [sp, #16]
 8001264:	9305      	str	r3, [sp, #20]
 8001266:	9306      	str	r3, [sp, #24]
 8001268:	9307      	str	r3, [sp, #28]
 800126a:	9301      	str	r3, [sp, #4]
 800126c:	4a20      	ldr	r2, [pc, #128]	; (80012f0 <SystemClock_Config+0xa0>)
 800126e:	6c11      	ldr	r1, [r2, #64]	; 0x40
 8001270:	f041 5180 	orr.w	r1, r1, #268435456	; 0x10000000
 8001274:	6411      	str	r1, [r2, #64]	; 0x40
 8001276:	6c12      	ldr	r2, [r2, #64]	; 0x40
 8001278:	f002 5280 	and.w	r2, r2, #268435456	; 0x10000000
 800127c:	9201      	str	r2, [sp, #4]
 800127e:	9a01      	ldr	r2, [sp, #4]
 8001280:	9302      	str	r3, [sp, #8]
 8001282:	4a1c      	ldr	r2, [pc, #112]	; (80012f4 <SystemClock_Config+0xa4>)
 8001284:	6813      	ldr	r3, [r2, #0]
 8001286:	f423 4340 	bic.w	r3, r3, #49152	; 0xc000
 800128a:	f443 4300 	orr.w	r3, r3, #32768	; 0x8000
 800128e:	6013      	str	r3, [r2, #0]
 8001290:	6813      	ldr	r3, [r2, #0]
 8001292:	f403 4340 	and.w	r3, r3, #49152	; 0xc000
 8001296:	9302      	str	r3, [sp, #8]
 8001298:	9b02      	ldr	r3, [sp, #8]
 800129a:	2301      	movs	r3, #1
 800129c:	9308      	str	r3, [sp, #32]
 800129e:	f44f 23a0 	mov.w	r3, #327680	; 0x50000
 80012a2:	9309      	str	r3, [sp, #36]	; 0x24
 80012a4:	2302      	movs	r3, #2
 80012a6:	930e      	str	r3, [sp, #56]	; 0x38
 80012a8:	f44f 0380 	mov.w	r3, #4194304	; 0x400000
 80012ac:	930f      	str	r3, [sp, #60]	; 0x3c
 80012ae:	2308      	movs	r3, #8
 80012b0:	9310      	str	r3, [sp, #64]	; 0x40
 80012b2:	f44f 73a7 	mov.w	r3, #334	; 0x14e
 80012b6:	9311      	str	r3, [sp, #68]	; 0x44
 80012b8:	2304      	movs	r3, #4
 80012ba:	9312      	str	r3, [sp, #72]	; 0x48
 80012bc:	2307      	movs	r3, #7
 80012be:	9313      	str	r3, [sp, #76]	; 0x4c
 80012c0:	a808      	add	r0, sp, #32
 80012c2:	f001 f81f 	bl	8002304 <HAL_RCC_OscConfig>
 80012c6:	b988      	cbnz	r0, 80012ec <SystemClock_Config+0x9c>
 80012c8:	230f      	movs	r3, #15
 80012ca:	9303      	str	r3, [sp, #12]
 80012cc:	2302      	movs	r3, #2
 80012ce:	9304      	str	r3, [sp, #16]
 80012d0:	2390      	movs	r3, #144	; 0x90
 80012d2:	9305      	str	r3, [sp, #20]
 80012d4:	f44f 5380 	mov.w	r3, #4096	; 0x1000
 80012d8:	9306      	str	r3, [sp, #24]
 80012da:	2100      	movs	r1, #0
 80012dc:	9107      	str	r1, [sp, #28]
 80012de:	a803      	add	r0, sp, #12
 80012e0:	f001 face 	bl	8002880 <HAL_RCC_ClockConfig>
 80012e4:	b918      	cbnz	r0, 80012ee <SystemClock_Config+0x9e>
 80012e6:	b015      	add	sp, #84	; 0x54
 80012e8:	f85d fb04 	ldr.w	pc, [sp], #4
 80012ec:	e7fe      	b.n	80012ec <SystemClock_Config+0x9c>
 80012ee:	e7fe      	b.n	80012ee <SystemClock_Config+0x9e>
 80012f0:	40023800 	.word	0x40023800
 80012f4:	40007000 	.word	0x40007000

080012f8 <main>:
 80012f8:	b500      	push	{lr}
 80012fa:	b08b      	sub	sp, #44	; 0x2c
 80012fc:	f000 fcb2 	bl	8001c64 <HAL_Init>
 8001300:	f7ff ffa6 	bl	8001250 <SystemClock_Config>
 8001304:	2400      	movs	r4, #0
 8001306:	9405      	str	r4, [sp, #20]
 8001308:	9406      	str	r4, [sp, #24]
 800130a:	9407      	str	r4, [sp, #28]
 800130c:	9408      	str	r4, [sp, #32]
 800130e:	9409      	str	r4, [sp, #36]	; 0x24
 8001310:	9401      	str	r4, [sp, #4]
 8001312:	4b3c      	ldr	r3, [pc, #240]	; (8001404 <main+0x10c>)
 8001314:	6b1a      	ldr	r2, [r3, #48]	; 0x30
 8001316:	f042 0204 	orr.w	r2, r2, #4
 800131a:	631a      	str	r2, [r3, #48]	; 0x30
 800131c:	6b1a      	ldr	r2, [r3, #48]	; 0x30
 800131e:	f002 0204 	and.w	r2, r2, #4
 8001322:	9201      	str	r2, [sp, #4]
 8001324:	9a01      	ldr	r2, [sp, #4]
 8001326:	9402      	str	r4, [sp, #8]
 8001328:	6b1a      	ldr	r2, [r3, #48]	; 0x30
 800132a:	f042 0280 	orr.w	r2, r2, #128	; 0x80
 800132e:	631a      	str	r2, [r3, #48]	; 0x30
 8001330:	6b1a      	ldr	r2, [r3, #48]	; 0x30
 8001332:	f002 0280 	and.w	r2, r2, #128	; 0x80
 8001336:	9202      	str	r2, [sp, #8]
 8001338:	9a02      	ldr	r2, [sp, #8]
 800133a:	9403      	str	r4, [sp, #12]
 800133c:	6b1a      	ldr	r2, [r3, #48]	; 0x30
 800133e:	f042 0201 	orr.w	r2, r2, #1
 8001342:	631a      	str	r2, [r3, #48]	; 0x30
 8001344:	6b1a      	ldr	r2, [r3, #48]	; 0x30
 8001346:	f002 0201 	and.w	r2, r2, #1
 800134a:	9203      	str	r2, [sp, #12]
 800134c:	9a03      	ldr	r2, [sp, #12]
 800134e:	9404      	str	r4, [sp, #16]
 8001350:	6b1a      	ldr	r2, [r3, #48]	; 0x30
 8001352:	f042 0202 	orr.w	r2, r2, #2
 8001356:	631a      	str	r2, [r3, #48]	; 0x30
 8001358:	6b1b      	ldr	r3, [r3, #48]	; 0x30
 800135a:	f003 0302 	and.w	r3, r3, #2
 800135e:	9304      	str	r3, [sp, #16]
 8001360:	9b04      	ldr	r3, [sp, #16]
 8001362:	4d29      	ldr	r5, [pc, #164]	; (8001408 <main+0x110>)
 8001364:	4622      	mov	r2, r4
 8001366:	f44f 7191 	mov.w	r1, #290	; 0x122
 800136a:	4628      	mov	r0, r5
 800136c:	f000 ffae 	bl	80022cc <HAL_GPIO_WritePin>
 8001370:	f44f 5300 	mov.w	r3, #8192	; 0x2000
 8001374:	9305      	str	r3, [sp, #20]
 8001376:	4b25      	ldr	r3, [pc, #148]	; (800140c <main+0x114>)
 8001378:	9306      	str	r3, [sp, #24]
 800137a:	9407      	str	r4, [sp, #28]
 800137c:	a905      	add	r1, sp, #20
 800137e:	4824      	ldr	r0, [pc, #144]	; (8001410 <main+0x118>)
 8001380:	f000 fdb2 	bl	8001ee8 <HAL_GPIO_Init>
 8001384:	2601      	movs	r6, #1
 8001386:	9605      	str	r6, [sp, #20]
 8001388:	4b22      	ldr	r3, [pc, #136]	; (8001414 <main+0x11c>)
 800138a:	9306      	str	r3, [sp, #24]
 800138c:	9407      	str	r4, [sp, #28]
 800138e:	a905      	add	r1, sp, #20
 8001390:	4628      	mov	r0, r5
 8001392:	f000 fda9 	bl	8001ee8 <HAL_GPIO_Init>
 8001396:	f44f 7391 	mov.w	r3, #290	; 0x122
 800139a:	9305      	str	r3, [sp, #20]
 800139c:	9606      	str	r6, [sp, #24]
 800139e:	9407      	str	r4, [sp, #28]
 80013a0:	9408      	str	r4, [sp, #32]
 80013a2:	a905      	add	r1, sp, #20
 80013a4:	4628      	mov	r0, r5
 80013a6:	f000 fd9f 	bl	8001ee8 <HAL_GPIO_Init>
 80013aa:	4622      	mov	r2, r4
 80013ac:	4621      	mov	r1, r4
 80013ae:	2006      	movs	r0, #6
 80013b0:	f000 fcb6 	bl	8001d20 <HAL_NVIC_SetPriority>
 80013b4:	2006      	movs	r0, #6
 80013b6:	f000 fcf7 	bl	8001da8 <HAL_NVIC_EnableIRQ>
 80013ba:	4622      	mov	r2, r4
 80013bc:	4621      	mov	r1, r4
 80013be:	2028      	movs	r0, #40	; 0x28
 80013c0:	f000 fcae 	bl	8001d20 <HAL_NVIC_SetPriority>
 80013c4:	2028      	movs	r0, #40	; 0x28
 80013c6:	f000 fcef 	bl	8001da8 <HAL_NVIC_EnableIRQ>
 80013ca:	4813      	ldr	r0, [pc, #76]	; (8001418 <main+0x120>)
 80013cc:	4b13      	ldr	r3, [pc, #76]	; (800141c <main+0x124>)
 80013ce:	6003      	str	r3, [r0, #0]
 80013d0:	f44f 33e1 	mov.w	r3, #115200	; 0x1c200
 80013d4:	6043      	str	r3, [r0, #4]
 80013d6:	6084      	str	r4, [r0, #8]
 80013d8:	60c4      	str	r4, [r0, #12]
 80013da:	6104      	str	r4, [r0, #16]
 80013dc:	230c      	movs	r3, #12
 80013de:	6143      	str	r3, [r0, #20]
 80013e0:	6184      	str	r4, [r0, #24]
 80013e2:	61c4      	str	r4, [r0, #28]
 80013e4:	f001 ffae 	bl	8003344 <HAL_UART_Init>
 80013e8:	b958      	cbnz	r0, 8001402 <main+0x10a>
 80013ea:	f7ff fa91 	bl	8000910 <MX_BlueNRG_MS_Init>
 80013ee:	480a      	ldr	r0, [pc, #40]	; (8001418 <main+0x120>)
 80013f0:	f000 f8b2 	bl	8001558 <InitStation>
 80013f4:	240a      	movs	r4, #10
 80013f6:	f000 f8d3 	bl	80015a0 <Station_MS_Process>
 80013fa:	4620      	mov	r0, r4
 80013fc:	f000 fc5e 	bl	8001cbc <HAL_Delay>
 8001400:	e7f9      	b.n	80013f6 <main+0xfe>
 8001402:	e7fe      	b.n	8001402 <main+0x10a>
 8001404:	40023800 	.word	0x40023800
 8001408:	40020000 	.word	0x40020000
 800140c:	10210000 	.word	0x10210000
 8001410:	40020800 	.word	0x40020800
 8001414:	10110000 	.word	0x10110000
 8001418:	200007a8 	.word	0x200007a8
 800141c:	40011000 	.word	0x40011000

08001420 <assert_failed>:
 8001420:	4770      	bx	lr
	...

08001424 <SYNCHRONIZE>:
 8001424:	b510      	push	{r4, lr}
 8001426:	b08c      	sub	sp, #48	; 0x30
 8001428:	2305      	movs	r3, #5
 800142a:	f88d 302f 	strb.w	r3, [sp, #47]	; 0x2f
 800142e:	4c0f      	ldr	r4, [pc, #60]	; (800146c <SYNCHRONIZE+0x48>)
 8001430:	a903      	add	r1, sp, #12
 8001432:	7820      	ldrb	r0, [r4, #0]
 8001434:	f7ff fe96 	bl	8001164 <BLE_GET_DEV_DATA>
 8001438:	7820      	ldrb	r0, [r4, #0]
 800143a:	2803      	cmp	r0, #3
 800143c:	d904      	bls.n	8001448 <SYNCHRONIZE+0x24>
 800143e:	4b0b      	ldr	r3, [pc, #44]	; (800146c <SYNCHRONIZE+0x48>)
 8001440:	2200      	movs	r2, #0
 8001442:	701a      	strb	r2, [r3, #0]
 8001444:	b00c      	add	sp, #48	; 0x30
 8001446:	bd10      	pop	{r4, pc}
 8001448:	4b09      	ldr	r3, [pc, #36]	; (8001470 <SYNCHRONIZE+0x4c>)
 800144a:	9301      	str	r3, [sp, #4]
 800144c:	f10d 032f 	add.w	r3, sp, #47	; 0x2f
 8001450:	9300      	str	r3, [sp, #0]
 8001452:	2301      	movs	r3, #1
 8001454:	f10d 0216 	add.w	r2, sp, #22
 8001458:	f10d 0122 	add.w	r1, sp, #34	; 0x22
 800145c:	f7ff fecc 	bl	80011f8 <BLE_WRITE_CHAR>
 8001460:	2800      	cmp	r0, #0
 8001462:	d1ef      	bne.n	8001444 <SYNCHRONIZE+0x20>
 8001464:	7823      	ldrb	r3, [r4, #0]
 8001466:	3301      	adds	r3, #1
 8001468:	7023      	strb	r3, [r4, #0]
 800146a:	e7eb      	b.n	8001444 <SYNCHRONIZE+0x20>
 800146c:	2000036d 	.word	0x2000036d
 8001470:	08001425 	.word	0x08001425

08001474 <CheckBufferSize>:
 8001474:	4b07      	ldr	r3, [pc, #28]	; (8001494 <CheckBufferSize+0x20>)
 8001476:	7818      	ldrb	r0, [r3, #0]
 8001478:	785b      	ldrb	r3, [r3, #1]
 800147a:	4298      	cmp	r0, r3
 800147c:	d306      	bcc.n	800148c <CheckBufferSize+0x18>
 800147e:	4298      	cmp	r0, r3
 8001480:	bf83      	ittte	hi
 8001482:	3350      	addhi	r3, #80	; 0x50
 8001484:	1a18      	subhi	r0, r3, r0
 8001486:	b2c0      	uxtbhi	r0, r0
 8001488:	2050      	movls	r0, #80	; 0x50
 800148a:	4770      	bx	lr
 800148c:	1ac0      	subs	r0, r0, r3
 800148e:	b2c0      	uxtb	r0, r0
 8001490:	4770      	bx	lr
 8001492:	bf00      	nop
 8001494:	20000004 	.word	0x20000004

08001498 <GetDataFromBUffer>:
 8001498:	4a07      	ldr	r2, [pc, #28]	; (80014b8 <GetDataFromBUffer+0x20>)
 800149a:	7813      	ldrb	r3, [r2, #0]
 800149c:	6850      	ldr	r0, [r2, #4]
 800149e:	4418      	add	r0, r3
 80014a0:	7852      	ldrb	r2, [r2, #1]
 80014a2:	429a      	cmp	r2, r3
 80014a4:	d006      	beq.n	80014b4 <GetDataFromBUffer+0x1c>
 80014a6:	2b4e      	cmp	r3, #78	; 0x4e
 80014a8:	bf9a      	itte	ls
 80014aa:	3301      	addls	r3, #1
 80014ac:	b2db      	uxtbls	r3, r3
 80014ae:	2300      	movhi	r3, #0
 80014b0:	4a01      	ldr	r2, [pc, #4]	; (80014b8 <GetDataFromBUffer+0x20>)
 80014b2:	7013      	strb	r3, [r2, #0]
 80014b4:	4770      	bx	lr
 80014b6:	bf00      	nop
 80014b8:	20000004 	.word	0x20000004

080014bc <PutDataToBuffer>:
 80014bc:	b5f8      	push	{r3, r4, r5, r6, r7, lr}
 80014be:	4605      	mov	r5, r0
 80014c0:	460c      	mov	r4, r1
 80014c2:	f7ff ffd7 	bl	8001474 <CheckBufferSize>
 80014c6:	42a0      	cmp	r0, r4
 80014c8:	db32      	blt.n	8001530 <PutDataToBuffer+0x74>
 80014ca:	4626      	mov	r6, r4
 80014cc:	2c00      	cmp	r4, #0
 80014ce:	dd11      	ble.n	80014f4 <PutDataToBuffer+0x38>
 80014d0:	2300      	movs	r3, #0
 80014d2:	4618      	mov	r0, r3
 80014d4:	4917      	ldr	r1, [pc, #92]	; (8001534 <PutDataToBuffer+0x78>)
 80014d6:	784a      	ldrb	r2, [r1, #1]
 80014d8:	4402      	add	r2, r0
 80014da:	2a4f      	cmp	r2, #79	; 0x4f
 80014dc:	5cef      	ldrb	r7, [r5, r3]
 80014de:	6848      	ldr	r0, [r1, #4]
 80014e0:	bfd2      	itee	le
 80014e2:	5487      	strble	r7, [r0, r2]
 80014e4:	1812      	addgt	r2, r2, r0
 80014e6:	f802 7c50 	strbgt.w	r7, [r2, #-80]
 80014ea:	3301      	adds	r3, #1
 80014ec:	b2db      	uxtb	r3, r3
 80014ee:	4618      	mov	r0, r3
 80014f0:	429e      	cmp	r6, r3
 80014f2:	dcf0      	bgt.n	80014d6 <PutDataToBuffer+0x1a>
 80014f4:	4b0f      	ldr	r3, [pc, #60]	; (8001534 <PutDataToBuffer+0x78>)
 80014f6:	785b      	ldrb	r3, [r3, #1]
 80014f8:	191a      	adds	r2, r3, r4
 80014fa:	2a4f      	cmp	r2, #79	; 0x4f
 80014fc:	bfd2      	itee	le
 80014fe:	4614      	movle	r4, r2
 8001500:	3b50      	subgt	r3, #80	; 0x50
 8001502:	18e4      	addgt	r4, r4, r3
 8001504:	b2e4      	uxtb	r4, r4
 8001506:	4b0b      	ldr	r3, [pc, #44]	; (8001534 <PutDataToBuffer+0x78>)
 8001508:	705c      	strb	r4, [r3, #1]
 800150a:	4b0b      	ldr	r3, [pc, #44]	; (8001538 <PutDataToBuffer+0x7c>)
 800150c:	6818      	ldr	r0, [r3, #0]
 800150e:	f002 f91d 	bl	800374c <HAL_UART_GetState>
 8001512:	2820      	cmp	r0, #32
 8001514:	d001      	beq.n	800151a <PutDataToBuffer+0x5e>
 8001516:	2000      	movs	r0, #0
 8001518:	e00b      	b.n	8001532 <PutDataToBuffer+0x76>
 800151a:	4b07      	ldr	r3, [pc, #28]	; (8001538 <PutDataToBuffer+0x7c>)
 800151c:	681c      	ldr	r4, [r3, #0]
 800151e:	f7ff ffbb 	bl	8001498 <GetDataFromBUffer>
 8001522:	2201      	movs	r2, #1
 8001524:	4601      	mov	r1, r0
 8001526:	4620      	mov	r0, r4
 8001528:	f001 ff8c 	bl	8003444 <HAL_UART_Transmit_IT>
 800152c:	2000      	movs	r0, #0
 800152e:	e000      	b.n	8001532 <PutDataToBuffer+0x76>
 8001530:	2001      	movs	r0, #1
 8001532:	bdf8      	pop	{r3, r4, r5, r6, r7, pc}
 8001534:	20000004 	.word	0x20000004
 8001538:	20000380 	.word	0x20000380

0800153c <DiscoveryCplt>:
 800153c:	b508      	push	{r3, lr}
 800153e:	f7ff ff99 	bl	8001474 <CheckBufferSize>
 8001542:	280a      	cmp	r0, #10
 8001544:	d800      	bhi.n	8001548 <DiscoveryCplt+0xc>
 8001546:	bd08      	pop	{r3, pc}
 8001548:	210a      	movs	r1, #10
 800154a:	4802      	ldr	r0, [pc, #8]	; (8001554 <DiscoveryCplt+0x18>)
 800154c:	f7ff ffb6 	bl	80014bc <PutDataToBuffer>
 8001550:	e7f9      	b.n	8001546 <DiscoveryCplt+0xa>
 8001552:	bf00      	nop
 8001554:	080045c8 	.word	0x080045c8

08001558 <InitStation>:
 8001558:	b508      	push	{r3, lr}
 800155a:	4b03      	ldr	r3, [pc, #12]	; (8001568 <InitStation+0x10>)
 800155c:	6018      	str	r0, [r3, #0]
 800155e:	2201      	movs	r2, #1
 8001560:	4902      	ldr	r1, [pc, #8]	; (800156c <InitStation+0x14>)
 8001562:	f001 ff93 	bl	800348c <HAL_UART_Receive_IT>
 8001566:	bd08      	pop	{r3, pc}
 8001568:	20000380 	.word	0x20000380
 800156c:	20000858 	.word	0x20000858

08001570 <AppendAndCheckMessage>:
 8001570:	280a      	cmp	r0, #10
 8001572:	d00a      	beq.n	800158a <AppendAndCheckMessage+0x1a>
 8001574:	4b08      	ldr	r3, [pc, #32]	; (8001598 <AppendAndCheckMessage+0x28>)
 8001576:	781b      	ldrb	r3, [r3, #0]
 8001578:	2b0e      	cmp	r3, #14
 800157a:	d906      	bls.n	800158a <AppendAndCheckMessage+0x1a>
 800157c:	4a07      	ldr	r2, [pc, #28]	; (800159c <AppendAndCheckMessage+0x2c>)
 800157e:	54d0      	strb	r0, [r2, r3]
 8001580:	3301      	adds	r3, #1
 8001582:	4a05      	ldr	r2, [pc, #20]	; (8001598 <AppendAndCheckMessage+0x28>)
 8001584:	7013      	strb	r3, [r2, #0]
 8001586:	2000      	movs	r0, #0
 8001588:	4770      	bx	lr
 800158a:	4b03      	ldr	r3, [pc, #12]	; (8001598 <AppendAndCheckMessage+0x28>)
 800158c:	7818      	ldrb	r0, [r3, #0]
 800158e:	2200      	movs	r2, #0
 8001590:	4902      	ldr	r1, [pc, #8]	; (800159c <AppendAndCheckMessage+0x2c>)
 8001592:	540a      	strb	r2, [r1, r0]
 8001594:	701a      	strb	r2, [r3, #0]
 8001596:	4770      	bx	lr
 8001598:	20000385 	.word	0x20000385
 800159c:	20000370 	.word	0x20000370

080015a0 <Station_MS_Process>:
 80015a0:	b508      	push	{r3, lr}
 80015a2:	f002 fd0d 	bl	8003fc0 <hci_user_evt_proc>
 80015a6:	bd08      	pop	{r3, pc}

080015a8 <FindAndDecodeTokensStation>:
 80015a8:	e92d 4ff0 	stmdb	sp!, {r4, r5, r6, r7, r8, r9, sl, fp, lr}
 80015ac:	b083      	sub	sp, #12
 80015ae:	4937      	ldr	r1, [pc, #220]	; (800168c <FindAndDecodeTokensStation+0xe4>)
 80015b0:	4837      	ldr	r0, [pc, #220]	; (8001690 <FindAndDecodeTokensStation+0xe8>)
 80015b2:	f002 fe7b 	bl	80042ac <strtok>
 80015b6:	4b37      	ldr	r3, [pc, #220]	; (8001694 <FindAndDecodeTokensStation+0xec>)
 80015b8:	6058      	str	r0, [r3, #4]
 80015ba:	2204      	movs	r2, #4
 80015bc:	701a      	strb	r2, [r3, #0]
 80015be:	2800      	cmp	r0, #0
 80015c0:	d05b      	beq.n	800167a <FindAndDecodeTokensStation+0xd2>
 80015c2:	2500      	movs	r5, #0
 80015c4:	461c      	mov	r4, r3
 80015c6:	4690      	mov	r8, r2
 80015c8:	4f30      	ldr	r7, [pc, #192]	; (800168c <FindAndDecodeTokensStation+0xe4>)
 80015ca:	3501      	adds	r5, #1
 80015cc:	b2ed      	uxtb	r5, r5
 80015ce:	f804 8035 	strb.w	r8, [r4, r5, lsl #3]
 80015d2:	4639      	mov	r1, r7
 80015d4:	2000      	movs	r0, #0
 80015d6:	f002 fe69 	bl	80042ac <strtok>
 80015da:	eb04 03c5 	add.w	r3, r4, r5, lsl #3
 80015de:	6058      	str	r0, [r3, #4]
 80015e0:	2800      	cmp	r0, #0
 80015e2:	d1f2      	bne.n	80015ca <FindAndDecodeTokensStation+0x22>
 80015e4:	4b2b      	ldr	r3, [pc, #172]	; (8001694 <FindAndDecodeTokensStation+0xec>)
 80015e6:	2200      	movs	r2, #0
 80015e8:	f803 2035 	strb.w	r2, [r3, r5, lsl #3]
 80015ec:	4b2a      	ldr	r3, [pc, #168]	; (8001698 <FindAndDecodeTokensStation+0xf0>)
 80015ee:	701d      	strb	r5, [r3, #0]
 80015f0:	2d00      	cmp	r5, #0
 80015f2:	d047      	beq.n	8001684 <FindAndDecodeTokensStation+0xdc>
 80015f4:	4e27      	ldr	r6, [pc, #156]	; (8001694 <FindAndDecodeTokensStation+0xec>)
 80015f6:	4693      	mov	fp, r2
 80015f8:	9501      	str	r5, [sp, #4]
 80015fa:	e022      	b.n	8001642 <FindAndDecodeTokensStation+0x9a>
 80015fc:	3408      	adds	r4, #8
 80015fe:	42ac      	cmp	r4, r5
 8001600:	d00c      	beq.n	800161c <FindAndDecodeTokensStation+0x74>
 8001602:	6861      	ldr	r1, [r4, #4]
 8001604:	6870      	ldr	r0, [r6, #4]
 8001606:	f7fe fde5 	bl	80001d4 <strcmp>
 800160a:	2800      	cmp	r0, #0
 800160c:	d1f6      	bne.n	80015fc <FindAndDecodeTokensStation+0x54>
 800160e:	f889 8000 	strb.w	r8, [r9]
 8001612:	7823      	ldrb	r3, [r4, #0]
 8001614:	713b      	strb	r3, [r7, #4]
 8001616:	2301      	movs	r3, #1
 8001618:	9300      	str	r3, [sp, #0]
 800161a:	e7ef      	b.n	80015fc <FindAndDecodeTokensStation+0x54>
 800161c:	687c      	ldr	r4, [r7, #4]
 800161e:	491f      	ldr	r1, [pc, #124]	; (800169c <FindAndDecodeTokensStation+0xf4>)
 8001620:	4620      	mov	r0, r4
 8001622:	f002 fe31 	bl	8004288 <strspn>
 8001626:	4605      	mov	r5, r0
 8001628:	4620      	mov	r0, r4
 800162a:	f7fe fddd 	bl	80001e8 <strlen>
 800162e:	4285      	cmp	r5, r0
 8001630:	d015      	beq.n	800165e <FindAndDecodeTokensStation+0xb6>
 8001632:	f10b 0b01 	add.w	fp, fp, #1
 8001636:	3608      	adds	r6, #8
 8001638:	fa5f f38b 	uxtb.w	r3, fp
 800163c:	9a01      	ldr	r2, [sp, #4]
 800163e:	4293      	cmp	r3, r2
 8001640:	d220      	bcs.n	8001684 <FindAndDecodeTokensStation+0xdc>
 8001642:	4c17      	ldr	r4, [pc, #92]	; (80016a0 <FindAndDecodeTokensStation+0xf8>)
 8001644:	f104 0520 	add.w	r5, r4, #32
 8001648:	ea4f 0acb 	mov.w	sl, fp, lsl #3
 800164c:	2300      	movs	r3, #0
 800164e:	9300      	str	r3, [sp, #0]
 8001650:	4637      	mov	r7, r6
 8001652:	4b10      	ldr	r3, [pc, #64]	; (8001694 <FindAndDecodeTokensStation+0xec>)
 8001654:	eb0a 0903 	add.w	r9, sl, r3
 8001658:	f04f 0803 	mov.w	r8, #3
 800165c:	e7d1      	b.n	8001602 <FindAndDecodeTokensStation+0x5a>
 800165e:	4620      	mov	r0, r4
 8001660:	f002 fd77 	bl	8004152 <atoi>
 8001664:	2800      	cmp	r0, #0
 8001666:	d0e4      	beq.n	8001632 <FindAndDecodeTokensStation+0x8a>
 8001668:	9a00      	ldr	r2, [sp, #0]
 800166a:	2a00      	cmp	r2, #0
 800166c:	d1e1      	bne.n	8001632 <FindAndDecodeTokensStation+0x8a>
 800166e:	2202      	movs	r2, #2
 8001670:	4908      	ldr	r1, [pc, #32]	; (8001694 <FindAndDecodeTokensStation+0xec>)
 8001672:	f80a 2001 	strb.w	r2, [sl, r1]
 8001676:	6078      	str	r0, [r7, #4]
 8001678:	e7db      	b.n	8001632 <FindAndDecodeTokensStation+0x8a>
 800167a:	2300      	movs	r3, #0
 800167c:	4a05      	ldr	r2, [pc, #20]	; (8001694 <FindAndDecodeTokensStation+0xec>)
 800167e:	7013      	strb	r3, [r2, #0]
 8001680:	4a05      	ldr	r2, [pc, #20]	; (8001698 <FindAndDecodeTokensStation+0xf0>)
 8001682:	7013      	strb	r3, [r2, #0]
 8001684:	b003      	add	sp, #12
 8001686:	e8bd 8ff0 	ldmia.w	sp!, {r4, r5, r6, r7, r8, r9, sl, fp, pc}
 800168a:	bf00      	nop
 800168c:	080045d4 	.word	0x080045d4
 8001690:	20000370 	.word	0x20000370
 8001694:	200007e8 	.word	0x200007e8
 8001698:	20000384 	.word	0x20000384
 800169c:	080045d8 	.word	0x080045d8
 80016a0:	2000000c 	.word	0x2000000c

080016a4 <CONNECT_DEV>:
 80016a4:	2902      	cmp	r1, #2
 80016a6:	d000      	beq.n	80016aa <CONNECT_DEV+0x6>
 80016a8:	4770      	bx	lr
 80016aa:	b508      	push	{r3, lr}
 80016ac:	7803      	ldrb	r3, [r0, #0]
 80016ae:	2b02      	cmp	r3, #2
 80016b0:	d102      	bne.n	80016b8 <CONNECT_DEV+0x14>
 80016b2:	7a03      	ldrb	r3, [r0, #8]
 80016b4:	2b02      	cmp	r3, #2
 80016b6:	d000      	beq.n	80016ba <CONNECT_DEV+0x16>
 80016b8:	bd08      	pop	{r3, pc}
 80016ba:	7b01      	ldrb	r1, [r0, #12]
 80016bc:	7900      	ldrb	r0, [r0, #4]
 80016be:	f7ff fd53 	bl	8001168 <BLE_CONNECT_TO_DEVICE>
 80016c2:	e7f9      	b.n	80016b8 <CONNECT_DEV+0x14>

080016c4 <ExecuteCommands>:
 80016c4:	b508      	push	{r3, lr}
 80016c6:	4b0e      	ldr	r3, [pc, #56]	; (8001700 <ExecuteCommands+0x3c>)
 80016c8:	7819      	ldrb	r1, [r3, #0]
 80016ca:	b151      	cbz	r1, 80016e2 <ExecuteCommands+0x1e>
 80016cc:	4b0d      	ldr	r3, [pc, #52]	; (8001704 <ExecuteCommands+0x40>)
 80016ce:	781b      	ldrb	r3, [r3, #0]
 80016d0:	2b03      	cmp	r3, #3
 80016d2:	d106      	bne.n	80016e2 <ExecuteCommands+0x1e>
 80016d4:	4b0b      	ldr	r3, [pc, #44]	; (8001704 <ExecuteCommands+0x40>)
 80016d6:	791b      	ldrb	r3, [r3, #4]
 80016d8:	2b01      	cmp	r3, #1
 80016da:	d00a      	beq.n	80016f2 <ExecuteCommands+0x2e>
 80016dc:	b113      	cbz	r3, 80016e4 <ExecuteCommands+0x20>
 80016de:	2b03      	cmp	r3, #3
 80016e0:	d004      	beq.n	80016ec <ExecuteCommands+0x28>
 80016e2:	bd08      	pop	{r3, pc}
 80016e4:	4808      	ldr	r0, [pc, #32]	; (8001708 <ExecuteCommands+0x44>)
 80016e6:	f7ff fd6f 	bl	80011c8 <BLE_START_SCAN>
 80016ea:	e7fa      	b.n	80016e2 <ExecuteCommands+0x1e>
 80016ec:	f7ff fe9a 	bl	8001424 <SYNCHRONIZE>
 80016f0:	e7f7      	b.n	80016e2 <ExecuteCommands+0x1e>
 80016f2:	3901      	subs	r1, #1
 80016f4:	b2c9      	uxtb	r1, r1
 80016f6:	4805      	ldr	r0, [pc, #20]	; (800170c <ExecuteCommands+0x48>)
 80016f8:	f7ff ffd4 	bl	80016a4 <CONNECT_DEV>
 80016fc:	e7f1      	b.n	80016e2 <ExecuteCommands+0x1e>
 80016fe:	bf00      	nop
 8001700:	20000384 	.word	0x20000384
 8001704:	200007e8 	.word	0x200007e8
 8001708:	0800153d 	.word	0x0800153d
 800170c:	200007f0 	.word	0x200007f0

08001710 <STATION_UART_RxCpltCallback>:
 8001710:	b508      	push	{r3, lr}
 8001712:	4b0c      	ldr	r3, [pc, #48]	; (8001744 <STATION_UART_RxCpltCallback+0x34>)
 8001714:	681b      	ldr	r3, [r3, #0]
 8001716:	b11b      	cbz	r3, 8001720 <STATION_UART_RxCpltCallback+0x10>
 8001718:	681a      	ldr	r2, [r3, #0]
 800171a:	6803      	ldr	r3, [r0, #0]
 800171c:	429a      	cmp	r2, r3
 800171e:	d000      	beq.n	8001722 <STATION_UART_RxCpltCallback+0x12>
 8001720:	bd08      	pop	{r3, pc}
 8001722:	4b09      	ldr	r3, [pc, #36]	; (8001748 <STATION_UART_RxCpltCallback+0x38>)
 8001724:	7818      	ldrb	r0, [r3, #0]
 8001726:	f7ff ff23 	bl	8001570 <AppendAndCheckMessage>
 800172a:	b930      	cbnz	r0, 800173a <STATION_UART_RxCpltCallback+0x2a>
 800172c:	2201      	movs	r2, #1
 800172e:	4906      	ldr	r1, [pc, #24]	; (8001748 <STATION_UART_RxCpltCallback+0x38>)
 8001730:	4b04      	ldr	r3, [pc, #16]	; (8001744 <STATION_UART_RxCpltCallback+0x34>)
 8001732:	6818      	ldr	r0, [r3, #0]
 8001734:	f001 feaa 	bl	800348c <HAL_UART_Receive_IT>
 8001738:	e7f2      	b.n	8001720 <STATION_UART_RxCpltCallback+0x10>
 800173a:	f7ff ff35 	bl	80015a8 <FindAndDecodeTokensStation>
 800173e:	f7ff ffc1 	bl	80016c4 <ExecuteCommands>
 8001742:	e7f3      	b.n	800172c <STATION_UART_RxCpltCallback+0x1c>
 8001744:	20000380 	.word	0x20000380
 8001748:	20000858 	.word	0x20000858

0800174c <HAL_MspInit>:
 800174c:	b082      	sub	sp, #8
 800174e:	2100      	movs	r1, #0
 8001750:	9100      	str	r1, [sp, #0]
 8001752:	4b0b      	ldr	r3, [pc, #44]	; (8001780 <HAL_MspInit+0x34>)
 8001754:	6c5a      	ldr	r2, [r3, #68]	; 0x44
 8001756:	f442 4280 	orr.w	r2, r2, #16384	; 0x4000
 800175a:	645a      	str	r2, [r3, #68]	; 0x44
 800175c:	6c5a      	ldr	r2, [r3, #68]	; 0x44
 800175e:	f402 4280 	and.w	r2, r2, #16384	; 0x4000
 8001762:	9200      	str	r2, [sp, #0]
 8001764:	9a00      	ldr	r2, [sp, #0]
 8001766:	9101      	str	r1, [sp, #4]
 8001768:	6c1a      	ldr	r2, [r3, #64]	; 0x40
 800176a:	f042 5280 	orr.w	r2, r2, #268435456	; 0x10000000
 800176e:	641a      	str	r2, [r3, #64]	; 0x40
 8001770:	6c1b      	ldr	r3, [r3, #64]	; 0x40
 8001772:	f003 5380 	and.w	r3, r3, #268435456	; 0x10000000
 8001776:	9301      	str	r3, [sp, #4]
 8001778:	9b01      	ldr	r3, [sp, #4]
 800177a:	b002      	add	sp, #8
 800177c:	4770      	bx	lr
 800177e:	bf00      	nop
 8001780:	40023800 	.word	0x40023800

08001784 <HAL_UART_MspInit>:
 8001784:	b510      	push	{r4, lr}
 8001786:	b088      	sub	sp, #32
 8001788:	2300      	movs	r3, #0
 800178a:	9303      	str	r3, [sp, #12]
 800178c:	9304      	str	r3, [sp, #16]
 800178e:	9305      	str	r3, [sp, #20]
 8001790:	9306      	str	r3, [sp, #24]
 8001792:	9307      	str	r3, [sp, #28]
 8001794:	6802      	ldr	r2, [r0, #0]
 8001796:	f103 4380 	add.w	r3, r3, #1073741824	; 0x40000000
 800179a:	f503 3388 	add.w	r3, r3, #69632	; 0x11000
 800179e:	429a      	cmp	r2, r3
 80017a0:	d001      	beq.n	80017a6 <HAL_UART_MspInit+0x22>
 80017a2:	b008      	add	sp, #32
 80017a4:	bd10      	pop	{r4, pc}
 80017a6:	2400      	movs	r4, #0
 80017a8:	9401      	str	r4, [sp, #4]
 80017aa:	f503 3394 	add.w	r3, r3, #75776	; 0x12800
 80017ae:	6c5a      	ldr	r2, [r3, #68]	; 0x44
 80017b0:	f042 0210 	orr.w	r2, r2, #16
 80017b4:	645a      	str	r2, [r3, #68]	; 0x44
 80017b6:	6c5a      	ldr	r2, [r3, #68]	; 0x44
 80017b8:	f002 0210 	and.w	r2, r2, #16
 80017bc:	9201      	str	r2, [sp, #4]
 80017be:	9a01      	ldr	r2, [sp, #4]
 80017c0:	9402      	str	r4, [sp, #8]
 80017c2:	6b1a      	ldr	r2, [r3, #48]	; 0x30
 80017c4:	f042 0201 	orr.w	r2, r2, #1
 80017c8:	631a      	str	r2, [r3, #48]	; 0x30
 80017ca:	6b1b      	ldr	r3, [r3, #48]	; 0x30
 80017cc:	f003 0301 	and.w	r3, r3, #1
 80017d0:	9302      	str	r3, [sp, #8]
 80017d2:	9b02      	ldr	r3, [sp, #8]
 80017d4:	f44f 63c0 	mov.w	r3, #1536	; 0x600
 80017d8:	9303      	str	r3, [sp, #12]
 80017da:	2302      	movs	r3, #2
 80017dc:	9304      	str	r3, [sp, #16]
 80017de:	2301      	movs	r3, #1
 80017e0:	9305      	str	r3, [sp, #20]
 80017e2:	2303      	movs	r3, #3
 80017e4:	9306      	str	r3, [sp, #24]
 80017e6:	2307      	movs	r3, #7
 80017e8:	9307      	str	r3, [sp, #28]
 80017ea:	a903      	add	r1, sp, #12
 80017ec:	4805      	ldr	r0, [pc, #20]	; (8001804 <HAL_UART_MspInit+0x80>)
 80017ee:	f000 fb7b 	bl	8001ee8 <HAL_GPIO_Init>
 80017f2:	4622      	mov	r2, r4
 80017f4:	4621      	mov	r1, r4
 80017f6:	2025      	movs	r0, #37	; 0x25
 80017f8:	f000 fa92 	bl	8001d20 <HAL_NVIC_SetPriority>
 80017fc:	2025      	movs	r0, #37	; 0x25
 80017fe:	f000 fad3 	bl	8001da8 <HAL_NVIC_EnableIRQ>
 8001802:	e7ce      	b.n	80017a2 <HAL_UART_MspInit+0x1e>
 8001804:	40020000 	.word	0x40020000

08001808 <NMI_Handler>:
 8001808:	4770      	bx	lr

0800180a <HardFault_Handler>:
 800180a:	e7fe      	b.n	800180a <HardFault_Handler>

0800180c <MemManage_Handler>:
 800180c:	e7fe      	b.n	800180c <MemManage_Handler>

0800180e <BusFault_Handler>:
 800180e:	e7fe      	b.n	800180e <BusFault_Handler>

08001810 <UsageFault_Handler>:
 8001810:	e7fe      	b.n	8001810 <UsageFault_Handler>

08001812 <SVC_Handler>:
 8001812:	4770      	bx	lr

08001814 <DebugMon_Handler>:
 8001814:	4770      	bx	lr

08001816 <PendSV_Handler>:
 8001816:	4770      	bx	lr

08001818 <SysTick_Handler>:
 8001818:	b508      	push	{r3, lr}
 800181a:	f000 fa3d 	bl	8001c98 <HAL_IncTick>
 800181e:	bd08      	pop	{r3, pc}

08001820 <EXTI0_IRQHandler>:
 8001820:	b508      	push	{r3, lr}
 8001822:	4802      	ldr	r0, [pc, #8]	; (800182c <EXTI0_IRQHandler+0xc>)
 8001824:	f000 fb52 	bl	8001ecc <HAL_EXTI_IRQHandler>
 8001828:	bd08      	pop	{r3, pc}
 800182a:	bf00      	nop
 800182c:	200006a8 	.word	0x200006a8

08001830 <USART1_IRQHandler>:
 8001830:	b508      	push	{r3, lr}
 8001832:	4802      	ldr	r0, [pc, #8]	; (800183c <USART1_IRQHandler+0xc>)
 8001834:	f001 fea8 	bl	8003588 <HAL_UART_IRQHandler>
 8001838:	bd08      	pop	{r3, pc}
 800183a:	bf00      	nop
 800183c:	200007a8 	.word	0x200007a8

08001840 <EXTI15_10_IRQHandler>:
 8001840:	b508      	push	{r3, lr}
 8001842:	4802      	ldr	r0, [pc, #8]	; (800184c <EXTI15_10_IRQHandler+0xc>)
 8001844:	f000 fb42 	bl	8001ecc <HAL_EXTI_IRQHandler>
 8001848:	bd08      	pop	{r3, pc}
 800184a:	bf00      	nop
 800184c:	20000034 	.word	0x20000034

08001850 <BSP_SPI1_SendRecv>:
 8001850:	b500      	push	{lr}
 8001852:	b083      	sub	sp, #12
 8001854:	f44f 5380 	mov.w	r3, #4096	; 0x1000
 8001858:	9300      	str	r3, [sp, #0]
 800185a:	4613      	mov	r3, r2
 800185c:	460a      	mov	r2, r1
 800185e:	4601      	mov	r1, r0
 8001860:	4805      	ldr	r0, [pc, #20]	; (8001878 <BSP_SPI1_SendRecv+0x28>)
 8001862:	f001 fa73 	bl	8002d4c <HAL_SPI_TransmitReceive>
 8001866:	2800      	cmp	r0, #0
 8001868:	bf0c      	ite	eq
 800186a:	2000      	moveq	r0, #0
 800186c:	f06f 0005 	mvnne.w	r0, #5
 8001870:	b003      	add	sp, #12
 8001872:	f85d fb04 	ldr.w	pc, [sp], #4
 8001876:	bf00      	nop
 8001878:	2000085c 	.word	0x2000085c

0800187c <BSP_GetTick>:
 800187c:	b508      	push	{r3, lr}
 800187e:	f000 fa17 	bl	8001cb0 <HAL_GetTick>
 8001882:	bd08      	pop	{r3, pc}

08001884 <MX_SPI1_Init>:
 8001884:	b508      	push	{r3, lr}
 8001886:	4a0c      	ldr	r2, [pc, #48]	; (80018b8 <MX_SPI1_Init+0x34>)
 8001888:	6002      	str	r2, [r0, #0]
 800188a:	f44f 7282 	mov.w	r2, #260	; 0x104
 800188e:	6042      	str	r2, [r0, #4]
 8001890:	2200      	movs	r2, #0
 8001892:	6082      	str	r2, [r0, #8]
 8001894:	60c2      	str	r2, [r0, #12]
 8001896:	6102      	str	r2, [r0, #16]
 8001898:	6142      	str	r2, [r0, #20]
 800189a:	f44f 7100 	mov.w	r1, #512	; 0x200
 800189e:	6181      	str	r1, [r0, #24]
 80018a0:	61c2      	str	r2, [r0, #28]
 80018a2:	6202      	str	r2, [r0, #32]
 80018a4:	6242      	str	r2, [r0, #36]	; 0x24
 80018a6:	6282      	str	r2, [r0, #40]	; 0x28
 80018a8:	220a      	movs	r2, #10
 80018aa:	62c2      	str	r2, [r0, #44]	; 0x2c
 80018ac:	f001 f98e 	bl	8002bcc <HAL_SPI_Init>
 80018b0:	3000      	adds	r0, #0
 80018b2:	bf18      	it	ne
 80018b4:	2001      	movne	r0, #1
 80018b6:	bd08      	pop	{r3, pc}
 80018b8:	40013000 	.word	0x40013000

080018bc <BSP_SPI1_Init>:
 80018bc:	4b29      	ldr	r3, [pc, #164]	; (8001964 <BSP_SPI1_Init+0xa8>)
 80018be:	4a2a      	ldr	r2, [pc, #168]	; (8001968 <BSP_SPI1_Init+0xac>)
 80018c0:	601a      	str	r2, [r3, #0]
 80018c2:	4a2a      	ldr	r2, [pc, #168]	; (800196c <BSP_SPI1_Init+0xb0>)
 80018c4:	6813      	ldr	r3, [r2, #0]
 80018c6:	1c59      	adds	r1, r3, #1
 80018c8:	6011      	str	r1, [r2, #0]
 80018ca:	b10b      	cbz	r3, 80018d0 <BSP_SPI1_Init+0x14>
 80018cc:	2000      	movs	r0, #0
 80018ce:	4770      	bx	lr
 80018d0:	b5f0      	push	{r4, r5, r6, r7, lr}
 80018d2:	b089      	sub	sp, #36	; 0x24
 80018d4:	4823      	ldr	r0, [pc, #140]	; (8001964 <BSP_SPI1_Init+0xa8>)
 80018d6:	f001 fb61 	bl	8002f9c <HAL_SPI_GetState>
 80018da:	b110      	cbz	r0, 80018e2 <BSP_SPI1_Init+0x26>
 80018dc:	2000      	movs	r0, #0
 80018de:	b009      	add	sp, #36	; 0x24
 80018e0:	bdf0      	pop	{r4, r5, r6, r7, pc}
 80018e2:	2400      	movs	r4, #0
 80018e4:	9400      	str	r4, [sp, #0]
 80018e6:	4b22      	ldr	r3, [pc, #136]	; (8001970 <BSP_SPI1_Init+0xb4>)
 80018e8:	6c5a      	ldr	r2, [r3, #68]	; 0x44
 80018ea:	f442 5280 	orr.w	r2, r2, #4096	; 0x1000
 80018ee:	645a      	str	r2, [r3, #68]	; 0x44
 80018f0:	6c5a      	ldr	r2, [r3, #68]	; 0x44
 80018f2:	f402 5280 	and.w	r2, r2, #4096	; 0x1000
 80018f6:	9200      	str	r2, [sp, #0]
 80018f8:	9a00      	ldr	r2, [sp, #0]
 80018fa:	9401      	str	r4, [sp, #4]
 80018fc:	6b1a      	ldr	r2, [r3, #48]	; 0x30
 80018fe:	f042 0201 	orr.w	r2, r2, #1
 8001902:	631a      	str	r2, [r3, #48]	; 0x30
 8001904:	6b1a      	ldr	r2, [r3, #48]	; 0x30
 8001906:	f002 0201 	and.w	r2, r2, #1
 800190a:	9201      	str	r2, [sp, #4]
 800190c:	9a01      	ldr	r2, [sp, #4]
 800190e:	9402      	str	r4, [sp, #8]
 8001910:	6b1a      	ldr	r2, [r3, #48]	; 0x30
 8001912:	f042 0202 	orr.w	r2, r2, #2
 8001916:	631a      	str	r2, [r3, #48]	; 0x30
 8001918:	6b1b      	ldr	r3, [r3, #48]	; 0x30
 800191a:	f003 0302 	and.w	r3, r3, #2
 800191e:	9302      	str	r3, [sp, #8]
 8001920:	9b02      	ldr	r3, [sp, #8]
 8001922:	23c0      	movs	r3, #192	; 0xc0
 8001924:	9303      	str	r3, [sp, #12]
 8001926:	2702      	movs	r7, #2
 8001928:	9704      	str	r7, [sp, #16]
 800192a:	9405      	str	r4, [sp, #20]
 800192c:	2603      	movs	r6, #3
 800192e:	9606      	str	r6, [sp, #24]
 8001930:	2505      	movs	r5, #5
 8001932:	9507      	str	r5, [sp, #28]
 8001934:	a903      	add	r1, sp, #12
 8001936:	480f      	ldr	r0, [pc, #60]	; (8001974 <BSP_SPI1_Init+0xb8>)
 8001938:	f000 fad6 	bl	8001ee8 <HAL_GPIO_Init>
 800193c:	2308      	movs	r3, #8
 800193e:	9303      	str	r3, [sp, #12]
 8001940:	9704      	str	r7, [sp, #16]
 8001942:	9405      	str	r4, [sp, #20]
 8001944:	9606      	str	r6, [sp, #24]
 8001946:	9507      	str	r5, [sp, #28]
 8001948:	a903      	add	r1, sp, #12
 800194a:	480b      	ldr	r0, [pc, #44]	; (8001978 <BSP_SPI1_Init+0xbc>)
 800194c:	f000 facc 	bl	8001ee8 <HAL_GPIO_Init>
 8001950:	4804      	ldr	r0, [pc, #16]	; (8001964 <BSP_SPI1_Init+0xa8>)
 8001952:	f7ff ff97 	bl	8001884 <MX_SPI1_Init>
 8001956:	2800      	cmp	r0, #0
 8001958:	bf0c      	ite	eq
 800195a:	4620      	moveq	r0, r4
 800195c:	f06f 0007 	mvnne.w	r0, #7
 8001960:	e7bd      	b.n	80018de <BSP_SPI1_Init+0x22>
 8001962:	bf00      	nop
 8001964:	2000085c 	.word	0x2000085c
 8001968:	40013000 	.word	0x40013000
 800196c:	20000388 	.word	0x20000388
 8001970:	40023800 	.word	0x40023800
 8001974:	40020000 	.word	0x40020000
 8001978:	40020400 	.word	0x40020400

0800197c <_sbrk>:
 800197c:	b508      	push	{r3, lr}
 800197e:	4603      	mov	r3, r0
 8001980:	4a0b      	ldr	r2, [pc, #44]	; (80019b0 <_sbrk+0x34>)
 8001982:	6812      	ldr	r2, [r2, #0]
 8001984:	b142      	cbz	r2, 8001998 <_sbrk+0x1c>
 8001986:	4a0a      	ldr	r2, [pc, #40]	; (80019b0 <_sbrk+0x34>)
 8001988:	6810      	ldr	r0, [r2, #0]
 800198a:	4403      	add	r3, r0
 800198c:	466a      	mov	r2, sp
 800198e:	4293      	cmp	r3, r2
 8001990:	d806      	bhi.n	80019a0 <_sbrk+0x24>
 8001992:	4a07      	ldr	r2, [pc, #28]	; (80019b0 <_sbrk+0x34>)
 8001994:	6013      	str	r3, [r2, #0]
 8001996:	bd08      	pop	{r3, pc}
 8001998:	4a05      	ldr	r2, [pc, #20]	; (80019b0 <_sbrk+0x34>)
 800199a:	4906      	ldr	r1, [pc, #24]	; (80019b4 <_sbrk+0x38>)
 800199c:	6011      	str	r1, [r2, #0]
 800199e:	e7f2      	b.n	8001986 <_sbrk+0xa>
 80019a0:	f002 fbdc 	bl	800415c <__errno>
 80019a4:	230c      	movs	r3, #12
 80019a6:	6003      	str	r3, [r0, #0]
 80019a8:	f04f 30ff 	mov.w	r0, #4294967295
 80019ac:	e7f3      	b.n	8001996 <_sbrk+0x1a>
 80019ae:	bf00      	nop
 80019b0:	2000038c 	.word	0x2000038c
 80019b4:	20000910 	.word	0x20000910

080019b8 <SystemInit>:
 80019b8:	490f      	ldr	r1, [pc, #60]	; (80019f8 <SystemInit+0x40>)
 80019ba:	f8d1 3088 	ldr.w	r3, [r1, #136]	; 0x88
 80019be:	f443 0370 	orr.w	r3, r3, #15728640	; 0xf00000
 80019c2:	f8c1 3088 	str.w	r3, [r1, #136]	; 0x88
 80019c6:	4b0d      	ldr	r3, [pc, #52]	; (80019fc <SystemInit+0x44>)
 80019c8:	681a      	ldr	r2, [r3, #0]
 80019ca:	f042 0201 	orr.w	r2, r2, #1
 80019ce:	601a      	str	r2, [r3, #0]
 80019d0:	2000      	movs	r0, #0
 80019d2:	6098      	str	r0, [r3, #8]
 80019d4:	681a      	ldr	r2, [r3, #0]
 80019d6:	f022 7284 	bic.w	r2, r2, #17301504	; 0x1080000
 80019da:	f422 3280 	bic.w	r2, r2, #65536	; 0x10000
 80019de:	601a      	str	r2, [r3, #0]
 80019e0:	4a07      	ldr	r2, [pc, #28]	; (8001a00 <SystemInit+0x48>)
 80019e2:	605a      	str	r2, [r3, #4]
 80019e4:	681a      	ldr	r2, [r3, #0]
 80019e6:	f422 2280 	bic.w	r2, r2, #262144	; 0x40000
 80019ea:	601a      	str	r2, [r3, #0]
 80019ec:	60d8      	str	r0, [r3, #12]
 80019ee:	f04f 6300 	mov.w	r3, #134217728	; 0x8000000
 80019f2:	608b      	str	r3, [r1, #8]
 80019f4:	4770      	bx	lr
 80019f6:	bf00      	nop
 80019f8:	e000ed00 	.word	0xe000ed00
 80019fc:	40023800 	.word	0x40023800
 8001a00:	24003010 	.word	0x24003010

08001a04 <Reset_Handler>:
 8001a04:	f8df d034 	ldr.w	sp, [pc, #52]	; 8001a3c <LoopFillZerobss+0x14>
 8001a08:	2100      	movs	r1, #0
 8001a0a:	e003      	b.n	8001a14 <LoopCopyDataInit>

08001a0c <CopyDataInit>:
 8001a0c:	4b0c      	ldr	r3, [pc, #48]	; (8001a40 <LoopFillZerobss+0x18>)
 8001a0e:	585b      	ldr	r3, [r3, r1]
 8001a10:	5043      	str	r3, [r0, r1]
 8001a12:	3104      	adds	r1, #4

08001a14 <LoopCopyDataInit>:
 8001a14:	480b      	ldr	r0, [pc, #44]	; (8001a44 <LoopFillZerobss+0x1c>)
 8001a16:	4b0c      	ldr	r3, [pc, #48]	; (8001a48 <LoopFillZerobss+0x20>)
 8001a18:	1842      	adds	r2, r0, r1
 8001a1a:	429a      	cmp	r2, r3
 8001a1c:	d3f6      	bcc.n	8001a0c <CopyDataInit>
 8001a1e:	4a0b      	ldr	r2, [pc, #44]	; (8001a4c <LoopFillZerobss+0x24>)
 8001a20:	e002      	b.n	8001a28 <LoopFillZerobss>

08001a22 <FillZerobss>:
 8001a22:	2300      	movs	r3, #0
 8001a24:	f842 3b04 	str.w	r3, [r2], #4

08001a28 <LoopFillZerobss>:
 8001a28:	4b09      	ldr	r3, [pc, #36]	; (8001a50 <LoopFillZerobss+0x28>)
 8001a2a:	429a      	cmp	r2, r3
 8001a2c:	d3f9      	bcc.n	8001a22 <FillZerobss>
 8001a2e:	f7ff ffc3 	bl	80019b8 <SystemInit>
 8001a32:	f002 fb99 	bl	8004168 <__libc_init_array>
 8001a36:	f7ff fc5f 	bl	80012f8 <main>
 8001a3a:	4770      	bx	lr
 8001a3c:	20018000 	.word	0x20018000
 8001a40:	080048a4 	.word	0x080048a4
 8001a44:	20000000 	.word	0x20000000
 8001a48:	20000218 	.word	0x20000218
 8001a4c:	20000218 	.word	0x20000218
 8001a50:	2000090c 	.word	0x2000090c

08001a54 <ADC_IRQHandler>:
 8001a54:	e7fe      	b.n	8001a54 <ADC_IRQHandler>
	...

08001a58 <BSP_LED_Init>:
 8001a58:	b570      	push	{r4, r5, r6, lr}
 8001a5a:	b086      	sub	sp, #24
 8001a5c:	2400      	movs	r4, #0
 8001a5e:	9400      	str	r4, [sp, #0]
 8001a60:	4b0e      	ldr	r3, [pc, #56]	; (8001a9c <BSP_LED_Init+0x44>)
 8001a62:	6b1a      	ldr	r2, [r3, #48]	; 0x30
 8001a64:	f042 0201 	orr.w	r2, r2, #1
 8001a68:	631a      	str	r2, [r3, #48]	; 0x30
 8001a6a:	6b1b      	ldr	r3, [r3, #48]	; 0x30
 8001a6c:	f003 0301 	and.w	r3, r3, #1
 8001a70:	9300      	str	r3, [sp, #0]
 8001a72:	9b00      	ldr	r3, [sp, #0]
 8001a74:	2620      	movs	r6, #32
 8001a76:	9601      	str	r6, [sp, #4]
 8001a78:	2301      	movs	r3, #1
 8001a7a:	9302      	str	r3, [sp, #8]
 8001a7c:	9303      	str	r3, [sp, #12]
 8001a7e:	2302      	movs	r3, #2
 8001a80:	9304      	str	r3, [sp, #16]
 8001a82:	4d07      	ldr	r5, [pc, #28]	; (8001aa0 <BSP_LED_Init+0x48>)
 8001a84:	a901      	add	r1, sp, #4
 8001a86:	4628      	mov	r0, r5
 8001a88:	f000 fa2e 	bl	8001ee8 <HAL_GPIO_Init>
 8001a8c:	4622      	mov	r2, r4
 8001a8e:	4631      	mov	r1, r6
 8001a90:	4628      	mov	r0, r5
 8001a92:	f000 fc1b 	bl	80022cc <HAL_GPIO_WritePin>
 8001a96:	4620      	mov	r0, r4
 8001a98:	b006      	add	sp, #24
 8001a9a:	bd70      	pop	{r4, r5, r6, pc}
 8001a9c:	40023800 	.word	0x40023800
 8001aa0:	40020000 	.word	0x40020000

08001aa4 <BSP_PB_Init>:
 8001aa4:	b510      	push	{r4, lr}
 8001aa6:	b086      	sub	sp, #24
 8001aa8:	2300      	movs	r3, #0
 8001aaa:	9300      	str	r3, [sp, #0]
 8001aac:	4b20      	ldr	r3, [pc, #128]	; (8001b30 <BSP_PB_Init+0x8c>)
 8001aae:	6b1a      	ldr	r2, [r3, #48]	; 0x30
 8001ab0:	f042 0204 	orr.w	r2, r2, #4
 8001ab4:	631a      	str	r2, [r3, #48]	; 0x30
 8001ab6:	6b1b      	ldr	r3, [r3, #48]	; 0x30
 8001ab8:	f003 0304 	and.w	r3, r3, #4
 8001abc:	9300      	str	r3, [sp, #0]
 8001abe:	9b00      	ldr	r3, [sp, #0]
 8001ac0:	f44f 5300 	mov.w	r3, #8192	; 0x2000
 8001ac4:	9301      	str	r3, [sp, #4]
 8001ac6:	2302      	movs	r3, #2
 8001ac8:	9303      	str	r3, [sp, #12]
 8001aca:	9304      	str	r3, [sp, #16]
 8001acc:	b311      	cbz	r1, 8001b14 <BSP_PB_Init+0x70>
 8001ace:	4604      	mov	r4, r0
 8001ad0:	4b18      	ldr	r3, [pc, #96]	; (8001b34 <BSP_PB_Init+0x90>)
 8001ad2:	9302      	str	r3, [sp, #8]
 8001ad4:	a901      	add	r1, sp, #4
 8001ad6:	4818      	ldr	r0, [pc, #96]	; (8001b38 <BSP_PB_Init+0x94>)
 8001ad8:	f000 fa06 	bl	8001ee8 <HAL_GPIO_Init>
 8001adc:	eb04 0444 	add.w	r4, r4, r4, lsl #1
 8001ae0:	4b16      	ldr	r3, [pc, #88]	; (8001b3c <BSP_PB_Init+0x98>)
 8001ae2:	eb03 0484 	add.w	r4, r3, r4, lsl #2
 8001ae6:	f44f 5100 	mov.w	r1, #8192	; 0x2000
 8001aea:	4620      	mov	r0, r4
 8001aec:	f000 f9a2 	bl	8001e34 <HAL_EXTI_GetHandle>
 8001af0:	b9c0      	cbnz	r0, 8001b24 <BSP_PB_Init+0x80>
 8001af2:	4a13      	ldr	r2, [pc, #76]	; (8001b40 <BSP_PB_Init+0x9c>)
 8001af4:	2100      	movs	r1, #0
 8001af6:	4620      	mov	r0, r4
 8001af8:	f000 f995 	bl	8001e26 <HAL_EXTI_RegisterCallback>
 8001afc:	b9a8      	cbnz	r0, 8001b2a <BSP_PB_Init+0x86>
 8001afe:	2200      	movs	r2, #0
 8001b00:	210f      	movs	r1, #15
 8001b02:	2028      	movs	r0, #40	; 0x28
 8001b04:	f000 f90c 	bl	8001d20 <HAL_NVIC_SetPriority>
 8001b08:	2028      	movs	r0, #40	; 0x28
 8001b0a:	f000 f94d 	bl	8001da8 <HAL_NVIC_EnableIRQ>
 8001b0e:	2000      	movs	r0, #0
 8001b10:	b006      	add	sp, #24
 8001b12:	bd10      	pop	{r4, pc}
 8001b14:	2400      	movs	r4, #0
 8001b16:	9402      	str	r4, [sp, #8]
 8001b18:	a901      	add	r1, sp, #4
 8001b1a:	4807      	ldr	r0, [pc, #28]	; (8001b38 <BSP_PB_Init+0x94>)
 8001b1c:	f000 f9e4 	bl	8001ee8 <HAL_GPIO_Init>
 8001b20:	4620      	mov	r0, r4
 8001b22:	e7f5      	b.n	8001b10 <BSP_PB_Init+0x6c>
 8001b24:	f06f 0003 	mvn.w	r0, #3
 8001b28:	e7f2      	b.n	8001b10 <BSP_PB_Init+0x6c>
 8001b2a:	f06f 0003 	mvn.w	r0, #3
 8001b2e:	e7ef      	b.n	8001b10 <BSP_PB_Init+0x6c>
 8001b30:	40023800 	.word	0x40023800
 8001b34:	10110000 	.word	0x10110000
 8001b38:	40020800 	.word	0x40020800
 8001b3c:	20000034 	.word	0x20000034
 8001b40:	08001b5d 	.word	0x08001b5d

08001b44 <BSP_PB_GetState>:
 8001b44:	b508      	push	{r3, lr}
 8001b46:	f44f 5100 	mov.w	r1, #8192	; 0x2000
 8001b4a:	4803      	ldr	r0, [pc, #12]	; (8001b58 <BSP_PB_GetState+0x14>)
 8001b4c:	f000 fbac 	bl	80022a8 <HAL_GPIO_ReadPin>
 8001b50:	fab0 f080 	clz	r0, r0
 8001b54:	0940      	lsrs	r0, r0, #5
 8001b56:	bd08      	pop	{r3, pc}
 8001b58:	40020800 	.word	0x40020800

08001b5c <BUTTON_USER_EXTI_Callback>:
 8001b5c:	b508      	push	{r3, lr}
 8001b5e:	2000      	movs	r0, #0
 8001b60:	f7fe ff6a 	bl	8000a38 <BSP_PB_Callback>
 8001b64:	bd08      	pop	{r3, pc}
	...

08001b68 <MX_USART2_UART_Init>:
 8001b68:	b508      	push	{r3, lr}
 8001b6a:	4a09      	ldr	r2, [pc, #36]	; (8001b90 <MX_USART2_UART_Init+0x28>)
 8001b6c:	6002      	str	r2, [r0, #0]
 8001b6e:	f44f 32e1 	mov.w	r2, #115200	; 0x1c200
 8001b72:	6042      	str	r2, [r0, #4]
 8001b74:	2200      	movs	r2, #0
 8001b76:	6082      	str	r2, [r0, #8]
 8001b78:	60c2      	str	r2, [r0, #12]
 8001b7a:	6102      	str	r2, [r0, #16]
 8001b7c:	210c      	movs	r1, #12
 8001b7e:	6141      	str	r1, [r0, #20]
 8001b80:	6182      	str	r2, [r0, #24]
 8001b82:	61c2      	str	r2, [r0, #28]
 8001b84:	f001 fbde 	bl	8003344 <HAL_UART_Init>
 8001b88:	3000      	adds	r0, #0
 8001b8a:	bf18      	it	ne
 8001b8c:	2001      	movne	r0, #1
 8001b8e:	bd08      	pop	{r3, pc}
 8001b90:	40004400 	.word	0x40004400

08001b94 <BSP_COM_Init>:
 8001b94:	2801      	cmp	r0, #1
 8001b96:	d834      	bhi.n	8001c02 <BSP_COM_Init+0x6e>
 8001b98:	b510      	push	{r4, lr}
 8001b9a:	b088      	sub	sp, #32
 8001b9c:	4a1a      	ldr	r2, [pc, #104]	; (8001c08 <BSP_COM_Init+0x74>)
 8001b9e:	0183      	lsls	r3, r0, #6
 8001ba0:	18d4      	adds	r4, r2, r3
 8001ba2:	491a      	ldr	r1, [pc, #104]	; (8001c0c <BSP_COM_Init+0x78>)
 8001ba4:	f851 1020 	ldr.w	r1, [r1, r0, lsl #2]
 8001ba8:	50d1      	str	r1, [r2, r3]
 8001baa:	2200      	movs	r2, #0
 8001bac:	9201      	str	r2, [sp, #4]
 8001bae:	4b18      	ldr	r3, [pc, #96]	; (8001c10 <BSP_COM_Init+0x7c>)
 8001bb0:	6c19      	ldr	r1, [r3, #64]	; 0x40
 8001bb2:	f441 3100 	orr.w	r1, r1, #131072	; 0x20000
 8001bb6:	6419      	str	r1, [r3, #64]	; 0x40
 8001bb8:	6c19      	ldr	r1, [r3, #64]	; 0x40
 8001bba:	f401 3100 	and.w	r1, r1, #131072	; 0x20000
 8001bbe:	9101      	str	r1, [sp, #4]
 8001bc0:	9901      	ldr	r1, [sp, #4]
 8001bc2:	9202      	str	r2, [sp, #8]
 8001bc4:	6b19      	ldr	r1, [r3, #48]	; 0x30
 8001bc6:	f041 0101 	orr.w	r1, r1, #1
 8001bca:	6319      	str	r1, [r3, #48]	; 0x30
 8001bcc:	6b1b      	ldr	r3, [r3, #48]	; 0x30
 8001bce:	f003 0301 	and.w	r3, r3, #1
 8001bd2:	9302      	str	r3, [sp, #8]
 8001bd4:	9b02      	ldr	r3, [sp, #8]
 8001bd6:	230c      	movs	r3, #12
 8001bd8:	9303      	str	r3, [sp, #12]
 8001bda:	2302      	movs	r3, #2
 8001bdc:	9304      	str	r3, [sp, #16]
 8001bde:	9205      	str	r2, [sp, #20]
 8001be0:	9206      	str	r2, [sp, #24]
 8001be2:	2307      	movs	r3, #7
 8001be4:	9307      	str	r3, [sp, #28]
 8001be6:	a903      	add	r1, sp, #12
 8001be8:	480a      	ldr	r0, [pc, #40]	; (8001c14 <BSP_COM_Init+0x80>)
 8001bea:	f000 f97d 	bl	8001ee8 <HAL_GPIO_Init>
 8001bee:	4620      	mov	r0, r4
 8001bf0:	f7ff ffba 	bl	8001b68 <MX_USART2_UART_Init>
 8001bf4:	2800      	cmp	r0, #0
 8001bf6:	bf0c      	ite	eq
 8001bf8:	2000      	moveq	r0, #0
 8001bfa:	f06f 0003 	mvnne.w	r0, #3
 8001bfe:	b008      	add	sp, #32
 8001c00:	bd10      	pop	{r4, pc}
 8001c02:	f06f 0001 	mvn.w	r0, #1
 8001c06:	4770      	bx	lr
 8001c08:	200008b4 	.word	0x200008b4
 8001c0c:	20000030 	.word	0x20000030
 8001c10:	40023800 	.word	0x40023800
 8001c14:	40020000 	.word	0x40020000

08001c18 <HAL_InitTick>:
 8001c18:	b510      	push	{r4, lr}
 8001c1a:	4604      	mov	r4, r0
 8001c1c:	4b0e      	ldr	r3, [pc, #56]	; (8001c58 <HAL_InitTick+0x40>)
 8001c1e:	7818      	ldrb	r0, [r3, #0]
 8001c20:	f44f 737a 	mov.w	r3, #1000	; 0x3e8
 8001c24:	fbb3 f3f0 	udiv	r3, r3, r0
 8001c28:	4a0c      	ldr	r2, [pc, #48]	; (8001c5c <HAL_InitTick+0x44>)
 8001c2a:	6810      	ldr	r0, [r2, #0]
 8001c2c:	fbb0 f0f3 	udiv	r0, r0, r3
 8001c30:	f000 f8d0 	bl	8001dd4 <HAL_SYSTICK_Config>
 8001c34:	b968      	cbnz	r0, 8001c52 <HAL_InitTick+0x3a>
 8001c36:	2c0f      	cmp	r4, #15
 8001c38:	d901      	bls.n	8001c3e <HAL_InitTick+0x26>
 8001c3a:	2001      	movs	r0, #1
 8001c3c:	e00a      	b.n	8001c54 <HAL_InitTick+0x3c>
 8001c3e:	2200      	movs	r2, #0
 8001c40:	4621      	mov	r1, r4
 8001c42:	f04f 30ff 	mov.w	r0, #4294967295
 8001c46:	f000 f86b 	bl	8001d20 <HAL_NVIC_SetPriority>
 8001c4a:	4b05      	ldr	r3, [pc, #20]	; (8001c60 <HAL_InitTick+0x48>)
 8001c4c:	601c      	str	r4, [r3, #0]
 8001c4e:	2000      	movs	r0, #0
 8001c50:	e000      	b.n	8001c54 <HAL_InitTick+0x3c>
 8001c52:	2001      	movs	r0, #1
 8001c54:	bd10      	pop	{r4, pc}
 8001c56:	bf00      	nop
 8001c58:	20000040 	.word	0x20000040
 8001c5c:	2000002c 	.word	0x2000002c
 8001c60:	20000044 	.word	0x20000044

08001c64 <HAL_Init>:
 8001c64:	b508      	push	{r3, lr}
 8001c66:	4b0b      	ldr	r3, [pc, #44]	; (8001c94 <HAL_Init+0x30>)
 8001c68:	681a      	ldr	r2, [r3, #0]
 8001c6a:	f442 7200 	orr.w	r2, r2, #512	; 0x200
 8001c6e:	601a      	str	r2, [r3, #0]
 8001c70:	681a      	ldr	r2, [r3, #0]
 8001c72:	f442 6280 	orr.w	r2, r2, #1024	; 0x400
 8001c76:	601a      	str	r2, [r3, #0]
 8001c78:	681a      	ldr	r2, [r3, #0]
 8001c7a:	f442 7280 	orr.w	r2, r2, #256	; 0x100
 8001c7e:	601a      	str	r2, [r3, #0]
 8001c80:	2003      	movs	r0, #3
 8001c82:	f000 f82f 	bl	8001ce4 <HAL_NVIC_SetPriorityGrouping>
 8001c86:	2000      	movs	r0, #0
 8001c88:	f7ff ffc6 	bl	8001c18 <HAL_InitTick>
 8001c8c:	f7ff fd5e 	bl	800174c <HAL_MspInit>
 8001c90:	2000      	movs	r0, #0
 8001c92:	bd08      	pop	{r3, pc}
 8001c94:	40023c00 	.word	0x40023c00

08001c98 <HAL_IncTick>:
 8001c98:	4a03      	ldr	r2, [pc, #12]	; (8001ca8 <HAL_IncTick+0x10>)
 8001c9a:	6811      	ldr	r1, [r2, #0]
 8001c9c:	4b03      	ldr	r3, [pc, #12]	; (8001cac <HAL_IncTick+0x14>)
 8001c9e:	781b      	ldrb	r3, [r3, #0]
 8001ca0:	440b      	add	r3, r1
 8001ca2:	6013      	str	r3, [r2, #0]
 8001ca4:	4770      	bx	lr
 8001ca6:	bf00      	nop
 8001ca8:	200008f4 	.word	0x200008f4
 8001cac:	20000040 	.word	0x20000040

08001cb0 <HAL_GetTick>:
 8001cb0:	4b01      	ldr	r3, [pc, #4]	; (8001cb8 <HAL_GetTick+0x8>)
 8001cb2:	6818      	ldr	r0, [r3, #0]
 8001cb4:	4770      	bx	lr
 8001cb6:	bf00      	nop
 8001cb8:	200008f4 	.word	0x200008f4

08001cbc <HAL_Delay>:
 8001cbc:	b538      	push	{r3, r4, r5, lr}
 8001cbe:	4604      	mov	r4, r0
 8001cc0:	f7ff fff6 	bl	8001cb0 <HAL_GetTick>
 8001cc4:	4605      	mov	r5, r0
 8001cc6:	f1b4 3fff 	cmp.w	r4, #4294967295
 8001cca:	d002      	beq.n	8001cd2 <HAL_Delay+0x16>
 8001ccc:	4b04      	ldr	r3, [pc, #16]	; (8001ce0 <HAL_Delay+0x24>)
 8001cce:	781b      	ldrb	r3, [r3, #0]
 8001cd0:	441c      	add	r4, r3
 8001cd2:	f7ff ffed 	bl	8001cb0 <HAL_GetTick>
 8001cd6:	1b40      	subs	r0, r0, r5
 8001cd8:	42a0      	cmp	r0, r4
 8001cda:	d3fa      	bcc.n	8001cd2 <HAL_Delay+0x16>
 8001cdc:	bd38      	pop	{r3, r4, r5, pc}
 8001cde:	bf00      	nop
 8001ce0:	20000040 	.word	0x20000040

08001ce4 <HAL_NVIC_SetPriorityGrouping>:
 8001ce4:	b510      	push	{r4, lr}
 8001ce6:	4604      	mov	r4, r0
 8001ce8:	1ec3      	subs	r3, r0, #3
 8001cea:	2b04      	cmp	r3, #4
 8001cec:	d80f      	bhi.n	8001d0e <HAL_NVIC_SetPriorityGrouping+0x2a>
 8001cee:	4a0a      	ldr	r2, [pc, #40]	; (8001d18 <HAL_NVIC_SetPriorityGrouping+0x34>)
 8001cf0:	68d3      	ldr	r3, [r2, #12]
 8001cf2:	f423 63e0 	bic.w	r3, r3, #1792	; 0x700
 8001cf6:	041b      	lsls	r3, r3, #16
 8001cf8:	0c1b      	lsrs	r3, r3, #16
 8001cfa:	f043 63bf 	orr.w	r3, r3, #100139008	; 0x5f80000
 8001cfe:	f443 3300 	orr.w	r3, r3, #131072	; 0x20000
 8001d02:	0224      	lsls	r4, r4, #8
 8001d04:	f404 64e0 	and.w	r4, r4, #1792	; 0x700
 8001d08:	431c      	orrs	r4, r3
 8001d0a:	60d4      	str	r4, [r2, #12]
 8001d0c:	bd10      	pop	{r4, pc}
 8001d0e:	2192      	movs	r1, #146	; 0x92
 8001d10:	4802      	ldr	r0, [pc, #8]	; (8001d1c <HAL_NVIC_SetPriorityGrouping+0x38>)
 8001d12:	f7ff fb85 	bl	8001420 <assert_failed>
 8001d16:	e7ea      	b.n	8001cee <HAL_NVIC_SetPriorityGrouping+0xa>
 8001d18:	e000ed00 	.word	0xe000ed00
 8001d1c:	08004628 	.word	0x08004628

08001d20 <HAL_NVIC_SetPriority>:
 8001d20:	b570      	push	{r4, r5, r6, lr}
 8001d22:	4605      	mov	r5, r0
 8001d24:	460c      	mov	r4, r1
 8001d26:	4616      	mov	r6, r2
 8001d28:	2a0f      	cmp	r2, #15
 8001d2a:	d826      	bhi.n	8001d7a <HAL_NVIC_SetPriority+0x5a>
 8001d2c:	2c0f      	cmp	r4, #15
 8001d2e:	d829      	bhi.n	8001d84 <HAL_NVIC_SetPriority+0x64>
 8001d30:	4b1a      	ldr	r3, [pc, #104]	; (8001d9c <HAL_NVIC_SetPriority+0x7c>)
 8001d32:	68db      	ldr	r3, [r3, #12]
 8001d34:	f3c3 2302 	ubfx	r3, r3, #8, #3
 8001d38:	f1c3 0207 	rsb	r2, r3, #7
 8001d3c:	2a04      	cmp	r2, #4
 8001d3e:	bf28      	it	cs
 8001d40:	2204      	movcs	r2, #4
 8001d42:	1d19      	adds	r1, r3, #4
 8001d44:	2906      	cmp	r1, #6
 8001d46:	bf8c      	ite	hi
 8001d48:	3b03      	subhi	r3, #3
 8001d4a:	2300      	movls	r3, #0
 8001d4c:	f04f 31ff 	mov.w	r1, #4294967295
 8001d50:	fa01 f202 	lsl.w	r2, r1, r2
 8001d54:	ea24 0402 	bic.w	r4, r4, r2
 8001d58:	409c      	lsls	r4, r3
 8001d5a:	fa01 f303 	lsl.w	r3, r1, r3
 8001d5e:	ea26 0603 	bic.w	r6, r6, r3
 8001d62:	4334      	orrs	r4, r6
 8001d64:	2d00      	cmp	r5, #0
 8001d66:	db12      	blt.n	8001d8e <HAL_NVIC_SetPriority+0x6e>
 8001d68:	0124      	lsls	r4, r4, #4
 8001d6a:	b2e4      	uxtb	r4, r4
 8001d6c:	f105 4560 	add.w	r5, r5, #3758096384	; 0xe0000000
 8001d70:	f505 4561 	add.w	r5, r5, #57600	; 0xe100
 8001d74:	f885 4300 	strb.w	r4, [r5, #768]	; 0x300
 8001d78:	bd70      	pop	{r4, r5, r6, pc}
 8001d7a:	21aa      	movs	r1, #170	; 0xaa
 8001d7c:	4808      	ldr	r0, [pc, #32]	; (8001da0 <HAL_NVIC_SetPriority+0x80>)
 8001d7e:	f7ff fb4f 	bl	8001420 <assert_failed>
 8001d82:	e7d3      	b.n	8001d2c <HAL_NVIC_SetPriority+0xc>
 8001d84:	21ab      	movs	r1, #171	; 0xab
 8001d86:	4806      	ldr	r0, [pc, #24]	; (8001da0 <HAL_NVIC_SetPriority+0x80>)
 8001d88:	f7ff fb4a 	bl	8001420 <assert_failed>
 8001d8c:	e7d0      	b.n	8001d30 <HAL_NVIC_SetPriority+0x10>
 8001d8e:	f005 050f 	and.w	r5, r5, #15
 8001d92:	0124      	lsls	r4, r4, #4
 8001d94:	b2e4      	uxtb	r4, r4
 8001d96:	4b03      	ldr	r3, [pc, #12]	; (8001da4 <HAL_NVIC_SetPriority+0x84>)
 8001d98:	555c      	strb	r4, [r3, r5]
 8001d9a:	e7ed      	b.n	8001d78 <HAL_NVIC_SetPriority+0x58>
 8001d9c:	e000ed00 	.word	0xe000ed00
 8001da0:	08004628 	.word	0x08004628
 8001da4:	e000ed14 	.word	0xe000ed14

08001da8 <HAL_NVIC_EnableIRQ>:
 8001da8:	b508      	push	{r3, lr}
 8001daa:	2800      	cmp	r0, #0
 8001dac:	db09      	blt.n	8001dc2 <HAL_NVIC_EnableIRQ+0x1a>
 8001dae:	0942      	lsrs	r2, r0, #5
 8001db0:	f000 001f 	and.w	r0, r0, #31
 8001db4:	2301      	movs	r3, #1
 8001db6:	fa03 f000 	lsl.w	r0, r3, r0
 8001dba:	4b04      	ldr	r3, [pc, #16]	; (8001dcc <HAL_NVIC_EnableIRQ+0x24>)
 8001dbc:	f843 0022 	str.w	r0, [r3, r2, lsl #2]
 8001dc0:	bd08      	pop	{r3, pc}
 8001dc2:	21be      	movs	r1, #190	; 0xbe
 8001dc4:	4802      	ldr	r0, [pc, #8]	; (8001dd0 <HAL_NVIC_EnableIRQ+0x28>)
 8001dc6:	f7ff fb2b 	bl	8001420 <assert_failed>
 8001dca:	e7f9      	b.n	8001dc0 <HAL_NVIC_EnableIRQ+0x18>
 8001dcc:	e000e100 	.word	0xe000e100
 8001dd0:	08004628 	.word	0x08004628

08001dd4 <HAL_SYSTICK_Config>:
 8001dd4:	3801      	subs	r0, #1
 8001dd6:	f1b0 7f80 	cmp.w	r0, #16777216	; 0x1000000
 8001dda:	d20a      	bcs.n	8001df2 <HAL_SYSTICK_Config+0x1e>
 8001ddc:	4b06      	ldr	r3, [pc, #24]	; (8001df8 <HAL_SYSTICK_Config+0x24>)
 8001dde:	6058      	str	r0, [r3, #4]
 8001de0:	4a06      	ldr	r2, [pc, #24]	; (8001dfc <HAL_SYSTICK_Config+0x28>)
 8001de2:	21f0      	movs	r1, #240	; 0xf0
 8001de4:	f882 1023 	strb.w	r1, [r2, #35]	; 0x23
 8001de8:	2000      	movs	r0, #0
 8001dea:	6098      	str	r0, [r3, #8]
 8001dec:	2207      	movs	r2, #7
 8001dee:	601a      	str	r2, [r3, #0]
 8001df0:	4770      	bx	lr
 8001df2:	2001      	movs	r0, #1
 8001df4:	4770      	bx	lr
 8001df6:	bf00      	nop
 8001df8:	e000e010 	.word	0xe000e010
 8001dfc:	e000ed00 	.word	0xe000ed00

08001e00 <HAL_DMA_Abort_IT>:
 8001e00:	f890 3035 	ldrb.w	r3, [r0, #53]	; 0x35
 8001e04:	b2db      	uxtb	r3, r3
 8001e06:	2b02      	cmp	r3, #2
 8001e08:	d003      	beq.n	8001e12 <HAL_DMA_Abort_IT+0x12>
 8001e0a:	2380      	movs	r3, #128	; 0x80
 8001e0c:	6543      	str	r3, [r0, #84]	; 0x54
 8001e0e:	2001      	movs	r0, #1
 8001e10:	4770      	bx	lr
 8001e12:	2305      	movs	r3, #5
 8001e14:	f880 3035 	strb.w	r3, [r0, #53]	; 0x35
 8001e18:	6802      	ldr	r2, [r0, #0]
 8001e1a:	6813      	ldr	r3, [r2, #0]
 8001e1c:	f023 0301 	bic.w	r3, r3, #1
 8001e20:	6013      	str	r3, [r2, #0]
 8001e22:	2000      	movs	r0, #0
 8001e24:	4770      	bx	lr

08001e26 <HAL_EXTI_RegisterCallback>:
 8001e26:	b911      	cbnz	r1, 8001e2e <HAL_EXTI_RegisterCallback+0x8>
 8001e28:	6042      	str	r2, [r0, #4]
 8001e2a:	2000      	movs	r0, #0
 8001e2c:	4770      	bx	lr
 8001e2e:	2001      	movs	r0, #1
 8001e30:	4770      	bx	lr
	...

08001e34 <HAL_EXTI_GetHandle>:
 8001e34:	b538      	push	{r3, r4, r5, lr}
 8001e36:	4605      	mov	r5, r0
 8001e38:	460c      	mov	r4, r1
 8001e3a:	1e4a      	subs	r2, r1, #1
 8001e3c:	2a1f      	cmp	r2, #31
 8001e3e:	d808      	bhi.n	8001e52 <HAL_EXTI_GetHandle+0x1e>
 8001e40:	4b20      	ldr	r3, [pc, #128]	; (8001ec4 <HAL_EXTI_GetHandle+0x90>)
 8001e42:	40d3      	lsrs	r3, r2
 8001e44:	f013 0f01 	tst.w	r3, #1
 8001e48:	d003      	beq.n	8001e52 <HAL_EXTI_GetHandle+0x1e>
 8001e4a:	b3cd      	cbz	r5, 8001ec0 <HAL_EXTI_GetHandle+0x8c>
 8001e4c:	602c      	str	r4, [r5, #0]
 8001e4e:	2000      	movs	r0, #0
 8001e50:	bd38      	pop	{r3, r4, r5, pc}
 8001e52:	2c40      	cmp	r4, #64	; 0x40
 8001e54:	d0f9      	beq.n	8001e4a <HAL_EXTI_GetHandle+0x16>
 8001e56:	2c80      	cmp	r4, #128	; 0x80
 8001e58:	d0f7      	beq.n	8001e4a <HAL_EXTI_GetHandle+0x16>
 8001e5a:	f5b4 7f80 	cmp.w	r4, #256	; 0x100
 8001e5e:	d0f4      	beq.n	8001e4a <HAL_EXTI_GetHandle+0x16>
 8001e60:	f5b4 7f00 	cmp.w	r4, #512	; 0x200
 8001e64:	d0f1      	beq.n	8001e4a <HAL_EXTI_GetHandle+0x16>
 8001e66:	f5b4 6f80 	cmp.w	r4, #1024	; 0x400
 8001e6a:	d0ee      	beq.n	8001e4a <HAL_EXTI_GetHandle+0x16>
 8001e6c:	f5b4 6f00 	cmp.w	r4, #2048	; 0x800
 8001e70:	d0eb      	beq.n	8001e4a <HAL_EXTI_GetHandle+0x16>
 8001e72:	f5b4 5f80 	cmp.w	r4, #4096	; 0x1000
 8001e76:	d0e8      	beq.n	8001e4a <HAL_EXTI_GetHandle+0x16>
 8001e78:	f5b4 5f00 	cmp.w	r4, #8192	; 0x2000
 8001e7c:	d0e5      	beq.n	8001e4a <HAL_EXTI_GetHandle+0x16>
 8001e7e:	f5b4 4f80 	cmp.w	r4, #16384	; 0x4000
 8001e82:	d0e2      	beq.n	8001e4a <HAL_EXTI_GetHandle+0x16>
 8001e84:	f5b4 4f00 	cmp.w	r4, #32768	; 0x8000
 8001e88:	d0df      	beq.n	8001e4a <HAL_EXTI_GetHandle+0x16>
 8001e8a:	f5b4 3f80 	cmp.w	r4, #65536	; 0x10000
 8001e8e:	d0dc      	beq.n	8001e4a <HAL_EXTI_GetHandle+0x16>
 8001e90:	f5b4 3f00 	cmp.w	r4, #131072	; 0x20000
 8001e94:	d0d9      	beq.n	8001e4a <HAL_EXTI_GetHandle+0x16>
 8001e96:	f5b4 2f80 	cmp.w	r4, #262144	; 0x40000
 8001e9a:	d0d6      	beq.n	8001e4a <HAL_EXTI_GetHandle+0x16>
 8001e9c:	f5b4 2f00 	cmp.w	r4, #524288	; 0x80000
 8001ea0:	d0d3      	beq.n	8001e4a <HAL_EXTI_GetHandle+0x16>
 8001ea2:	f5b4 1f80 	cmp.w	r4, #1048576	; 0x100000
 8001ea6:	d0d0      	beq.n	8001e4a <HAL_EXTI_GetHandle+0x16>
 8001ea8:	f5b4 1f00 	cmp.w	r4, #2097152	; 0x200000
 8001eac:	d0cd      	beq.n	8001e4a <HAL_EXTI_GetHandle+0x16>
 8001eae:	f5b4 0f80 	cmp.w	r4, #4194304	; 0x400000
 8001eb2:	d0ca      	beq.n	8001e4a <HAL_EXTI_GetHandle+0x16>
 8001eb4:	f240 1139 	movw	r1, #313	; 0x139
 8001eb8:	4803      	ldr	r0, [pc, #12]	; (8001ec8 <HAL_EXTI_GetHandle+0x94>)
 8001eba:	f7ff fab1 	bl	8001420 <assert_failed>
 8001ebe:	e7c4      	b.n	8001e4a <HAL_EXTI_GetHandle+0x16>
 8001ec0:	2001      	movs	r0, #1
 8001ec2:	e7c5      	b.n	8001e50 <HAL_EXTI_GetHandle+0x1c>
 8001ec4:	8000808b 	.word	0x8000808b
 8001ec8:	08004664 	.word	0x08004664

08001ecc <HAL_EXTI_IRQHandler>:
 8001ecc:	b508      	push	{r3, lr}
 8001ece:	4b05      	ldr	r3, [pc, #20]	; (8001ee4 <HAL_EXTI_IRQHandler+0x18>)
 8001ed0:	695b      	ldr	r3, [r3, #20]
 8001ed2:	b12b      	cbz	r3, 8001ee0 <HAL_EXTI_IRQHandler+0x14>
 8001ed4:	6802      	ldr	r2, [r0, #0]
 8001ed6:	4b03      	ldr	r3, [pc, #12]	; (8001ee4 <HAL_EXTI_IRQHandler+0x18>)
 8001ed8:	615a      	str	r2, [r3, #20]
 8001eda:	6843      	ldr	r3, [r0, #4]
 8001edc:	b103      	cbz	r3, 8001ee0 <HAL_EXTI_IRQHandler+0x14>
 8001ede:	4798      	blx	r3
 8001ee0:	bd08      	pop	{r3, pc}
 8001ee2:	bf00      	nop
 8001ee4:	40013c00 	.word	0x40013c00

08001ee8 <HAL_GPIO_Init>:
 8001ee8:	e92d 4ff0 	stmdb	sp!, {r4, r5, r6, r7, r8, r9, sl, fp, lr}
 8001eec:	b083      	sub	sp, #12
 8001eee:	4681      	mov	r9, r0
 8001ef0:	460e      	mov	r6, r1
 8001ef2:	4b91      	ldr	r3, [pc, #580]	; (8002138 <HAL_GPIO_Init+0x250>)
 8001ef4:	4298      	cmp	r0, r3
 8001ef6:	d017      	beq.n	8001f28 <HAL_GPIO_Init+0x40>
 8001ef8:	f503 6380 	add.w	r3, r3, #1024	; 0x400
 8001efc:	4298      	cmp	r0, r3
 8001efe:	d013      	beq.n	8001f28 <HAL_GPIO_Init+0x40>
 8001f00:	f503 6380 	add.w	r3, r3, #1024	; 0x400
 8001f04:	4298      	cmp	r0, r3
 8001f06:	d00f      	beq.n	8001f28 <HAL_GPIO_Init+0x40>
 8001f08:	f503 6380 	add.w	r3, r3, #1024	; 0x400
 8001f0c:	4298      	cmp	r0, r3
 8001f0e:	d00b      	beq.n	8001f28 <HAL_GPIO_Init+0x40>
 8001f10:	f503 6380 	add.w	r3, r3, #1024	; 0x400
 8001f14:	4298      	cmp	r0, r3
 8001f16:	d007      	beq.n	8001f28 <HAL_GPIO_Init+0x40>
 8001f18:	f503 6340 	add.w	r3, r3, #3072	; 0xc00
 8001f1c:	4298      	cmp	r0, r3
 8001f1e:	d003      	beq.n	8001f28 <HAL_GPIO_Init+0x40>
 8001f20:	21b3      	movs	r1, #179	; 0xb3
 8001f22:	4886      	ldr	r0, [pc, #536]	; (800213c <HAL_GPIO_Init+0x254>)
 8001f24:	f7ff fa7c 	bl	8001420 <assert_failed>
 8001f28:	6833      	ldr	r3, [r6, #0]
 8001f2a:	b29a      	uxth	r2, r3
 8001f2c:	b112      	cbz	r2, 8001f34 <HAL_GPIO_Init+0x4c>
 8001f2e:	0c1b      	lsrs	r3, r3, #16
 8001f30:	041b      	lsls	r3, r3, #16
 8001f32:	b11b      	cbz	r3, 8001f3c <HAL_GPIO_Init+0x54>
 8001f34:	21b4      	movs	r1, #180	; 0xb4
 8001f36:	4881      	ldr	r0, [pc, #516]	; (800213c <HAL_GPIO_Init+0x254>)
 8001f38:	f7ff fa72 	bl	8001420 <assert_failed>
 8001f3c:	6873      	ldr	r3, [r6, #4]
 8001f3e:	2b03      	cmp	r3, #3
 8001f40:	d917      	bls.n	8001f72 <HAL_GPIO_Init+0x8a>
 8001f42:	f1a3 0211 	sub.w	r2, r3, #17
 8001f46:	2a01      	cmp	r2, #1
 8001f48:	d913      	bls.n	8001f72 <HAL_GPIO_Init+0x8a>
 8001f4a:	f423 1200 	bic.w	r2, r3, #2097152	; 0x200000
 8001f4e:	497c      	ldr	r1, [pc, #496]	; (8002140 <HAL_GPIO_Init+0x258>)
 8001f50:	428a      	cmp	r2, r1
 8001f52:	d00e      	beq.n	8001f72 <HAL_GPIO_Init+0x8a>
 8001f54:	f501 1180 	add.w	r1, r1, #1048576	; 0x100000
 8001f58:	428b      	cmp	r3, r1
 8001f5a:	d00a      	beq.n	8001f72 <HAL_GPIO_Init+0x8a>
 8001f5c:	f5a1 2170 	sub.w	r1, r1, #983040	; 0xf0000
 8001f60:	428a      	cmp	r2, r1
 8001f62:	d006      	beq.n	8001f72 <HAL_GPIO_Init+0x8a>
 8001f64:	4a77      	ldr	r2, [pc, #476]	; (8002144 <HAL_GPIO_Init+0x25c>)
 8001f66:	4293      	cmp	r3, r2
 8001f68:	d003      	beq.n	8001f72 <HAL_GPIO_Init+0x8a>
 8001f6a:	21b5      	movs	r1, #181	; 0xb5
 8001f6c:	4873      	ldr	r0, [pc, #460]	; (800213c <HAL_GPIO_Init+0x254>)
 8001f6e:	f7ff fa57 	bl	8001420 <assert_failed>
 8001f72:	68b3      	ldr	r3, [r6, #8]
 8001f74:	2b02      	cmp	r3, #2
 8001f76:	d803      	bhi.n	8001f80 <HAL_GPIO_Init+0x98>
 8001f78:	2400      	movs	r4, #0
 8001f7a:	f8df b1d4 	ldr.w	fp, [pc, #468]	; 8002150 <HAL_GPIO_Init+0x268>
 8001f7e:	e056      	b.n	800202e <HAL_GPIO_Init+0x146>
 8001f80:	21b6      	movs	r1, #182	; 0xb6
 8001f82:	486e      	ldr	r0, [pc, #440]	; (800213c <HAL_GPIO_Init+0x254>)
 8001f84:	f7ff fa4c 	bl	8001420 <assert_failed>
 8001f88:	e7f6      	b.n	8001f78 <HAL_GPIO_Init+0x90>
 8001f8a:	6932      	ldr	r2, [r6, #16]
 8001f8c:	2a0f      	cmp	r2, #15
 8001f8e:	d815      	bhi.n	8001fbc <HAL_GPIO_Init+0xd4>
 8001f90:	f249 73f7 	movw	r3, #38903	; 0x97f7
 8001f94:	40d3      	lsrs	r3, r2
 8001f96:	f013 0f01 	tst.w	r3, #1
 8001f9a:	d00f      	beq.n	8001fbc <HAL_GPIO_Init+0xd4>
 8001f9c:	08e2      	lsrs	r2, r4, #3
 8001f9e:	eb09 0282 	add.w	r2, r9, r2, lsl #2
 8001fa2:	6a10      	ldr	r0, [r2, #32]
 8001fa4:	f004 0307 	and.w	r3, r4, #7
 8001fa8:	0099      	lsls	r1, r3, #2
 8001faa:	230f      	movs	r3, #15
 8001fac:	408b      	lsls	r3, r1
 8001fae:	ea20 0003 	bic.w	r0, r0, r3
 8001fb2:	6933      	ldr	r3, [r6, #16]
 8001fb4:	408b      	lsls	r3, r1
 8001fb6:	4303      	orrs	r3, r0
 8001fb8:	6213      	str	r3, [r2, #32]
 8001fba:	e043      	b.n	8002044 <HAL_GPIO_Init+0x15c>
 8001fbc:	21c7      	movs	r1, #199	; 0xc7
 8001fbe:	485f      	ldr	r0, [pc, #380]	; (800213c <HAL_GPIO_Init+0x254>)
 8001fc0:	f7ff fa2e 	bl	8001420 <assert_failed>
 8001fc4:	e7ea      	b.n	8001f9c <HAL_GPIO_Init+0xb4>
 8001fc6:	21da      	movs	r1, #218	; 0xda
 8001fc8:	485c      	ldr	r0, [pc, #368]	; (800213c <HAL_GPIO_Init+0x254>)
 8001fca:	f7ff fa29 	bl	8001420 <assert_failed>
 8001fce:	e056      	b.n	800207e <HAL_GPIO_Init+0x196>
 8001fd0:	2200      	movs	r2, #0
 8001fd2:	408a      	lsls	r2, r1
 8001fd4:	4302      	orrs	r2, r0
 8001fd6:	609a      	str	r2, [r3, #8]
 8001fd8:	4b5b      	ldr	r3, [pc, #364]	; (8002148 <HAL_GPIO_Init+0x260>)
 8001fda:	681b      	ldr	r3, [r3, #0]
 8001fdc:	43fa      	mvns	r2, r7
 8001fde:	6871      	ldr	r1, [r6, #4]
 8001fe0:	f411 3f80 	tst.w	r1, #65536	; 0x10000
 8001fe4:	bf0c      	ite	eq
 8001fe6:	4013      	andeq	r3, r2
 8001fe8:	433b      	orrne	r3, r7
 8001fea:	4957      	ldr	r1, [pc, #348]	; (8002148 <HAL_GPIO_Init+0x260>)
 8001fec:	600b      	str	r3, [r1, #0]
 8001fee:	684b      	ldr	r3, [r1, #4]
 8001ff0:	6871      	ldr	r1, [r6, #4]
 8001ff2:	f411 3f00 	tst.w	r1, #131072	; 0x20000
 8001ff6:	bf0c      	ite	eq
 8001ff8:	4013      	andeq	r3, r2
 8001ffa:	433b      	orrne	r3, r7
 8001ffc:	4952      	ldr	r1, [pc, #328]	; (8002148 <HAL_GPIO_Init+0x260>)
 8001ffe:	604b      	str	r3, [r1, #4]
 8002000:	688b      	ldr	r3, [r1, #8]
 8002002:	6871      	ldr	r1, [r6, #4]
 8002004:	f411 1f80 	tst.w	r1, #1048576	; 0x100000
 8002008:	bf0c      	ite	eq
 800200a:	4013      	andeq	r3, r2
 800200c:	433b      	orrne	r3, r7
 800200e:	494e      	ldr	r1, [pc, #312]	; (8002148 <HAL_GPIO_Init+0x260>)
 8002010:	608b      	str	r3, [r1, #8]
 8002012:	68cb      	ldr	r3, [r1, #12]
 8002014:	6871      	ldr	r1, [r6, #4]
 8002016:	f411 1f00 	tst.w	r1, #2097152	; 0x200000
 800201a:	bf0c      	ite	eq
 800201c:	ea02 0703 	andeq.w	r7, r2, r3
 8002020:	431f      	orrne	r7, r3
 8002022:	4b49      	ldr	r3, [pc, #292]	; (8002148 <HAL_GPIO_Init+0x260>)
 8002024:	60df      	str	r7, [r3, #12]
 8002026:	3401      	adds	r4, #1
 8002028:	2c10      	cmp	r4, #16
 800202a:	f000 8081 	beq.w	8002130 <HAL_GPIO_Init+0x248>
 800202e:	2501      	movs	r5, #1
 8002030:	40a5      	lsls	r5, r4
 8002032:	6837      	ldr	r7, [r6, #0]
 8002034:	402f      	ands	r7, r5
 8002036:	42bd      	cmp	r5, r7
 8002038:	d1f5      	bne.n	8002026 <HAL_GPIO_Init+0x13e>
 800203a:	6873      	ldr	r3, [r6, #4]
 800203c:	f023 0310 	bic.w	r3, r3, #16
 8002040:	2b02      	cmp	r3, #2
 8002042:	d0a2      	beq.n	8001f8a <HAL_GPIO_Init+0xa2>
 8002044:	f8d9 2000 	ldr.w	r2, [r9]
 8002048:	ea4f 0a44 	mov.w	sl, r4, lsl #1
 800204c:	f04f 0803 	mov.w	r8, #3
 8002050:	fa08 f80a 	lsl.w	r8, r8, sl
 8002054:	ea6f 0808 	mvn.w	r8, r8
 8002058:	ea08 0202 	and.w	r2, r8, r2
 800205c:	6873      	ldr	r3, [r6, #4]
 800205e:	f003 0303 	and.w	r3, r3, #3
 8002062:	fa03 f30a 	lsl.w	r3, r3, sl
 8002066:	4313      	orrs	r3, r2
 8002068:	f8c9 3000 	str.w	r3, [r9]
 800206c:	6873      	ldr	r3, [r6, #4]
 800206e:	f023 0310 	bic.w	r3, r3, #16
 8002072:	3b01      	subs	r3, #1
 8002074:	2b01      	cmp	r3, #1
 8002076:	d817      	bhi.n	80020a8 <HAL_GPIO_Init+0x1c0>
 8002078:	68f3      	ldr	r3, [r6, #12]
 800207a:	2b03      	cmp	r3, #3
 800207c:	d8a3      	bhi.n	8001fc6 <HAL_GPIO_Init+0xde>
 800207e:	f8d9 2008 	ldr.w	r2, [r9, #8]
 8002082:	ea08 0202 	and.w	r2, r8, r2
 8002086:	68f3      	ldr	r3, [r6, #12]
 8002088:	fa03 f30a 	lsl.w	r3, r3, sl
 800208c:	4313      	orrs	r3, r2
 800208e:	f8c9 3008 	str.w	r3, [r9, #8]
 8002092:	f8d9 2004 	ldr.w	r2, [r9, #4]
 8002096:	ea22 0205 	bic.w	r2, r2, r5
 800209a:	6873      	ldr	r3, [r6, #4]
 800209c:	f3c3 1500 	ubfx	r5, r3, #4, #1
 80020a0:	40a5      	lsls	r5, r4
 80020a2:	4315      	orrs	r5, r2
 80020a4:	f8c9 5004 	str.w	r5, [r9, #4]
 80020a8:	f8d9 300c 	ldr.w	r3, [r9, #12]
 80020ac:	ea08 0803 	and.w	r8, r8, r3
 80020b0:	68b3      	ldr	r3, [r6, #8]
 80020b2:	fa03 f30a 	lsl.w	r3, r3, sl
 80020b6:	ea43 0308 	orr.w	r3, r3, r8
 80020ba:	f8c9 300c 	str.w	r3, [r9, #12]
 80020be:	6873      	ldr	r3, [r6, #4]
 80020c0:	f013 5f80 	tst.w	r3, #268435456	; 0x10000000
 80020c4:	d0af      	beq.n	8002026 <HAL_GPIO_Init+0x13e>
 80020c6:	2300      	movs	r3, #0
 80020c8:	9301      	str	r3, [sp, #4]
 80020ca:	4b20      	ldr	r3, [pc, #128]	; (800214c <HAL_GPIO_Init+0x264>)
 80020cc:	6c5a      	ldr	r2, [r3, #68]	; 0x44
 80020ce:	f442 4280 	orr.w	r2, r2, #16384	; 0x4000
 80020d2:	645a      	str	r2, [r3, #68]	; 0x44
 80020d4:	6c5b      	ldr	r3, [r3, #68]	; 0x44
 80020d6:	f403 4380 	and.w	r3, r3, #16384	; 0x4000
 80020da:	9301      	str	r3, [sp, #4]
 80020dc:	9b01      	ldr	r3, [sp, #4]
 80020de:	f024 0303 	bic.w	r3, r4, #3
 80020e2:	f103 4380 	add.w	r3, r3, #1073741824	; 0x40000000
 80020e6:	f503 339c 	add.w	r3, r3, #79872	; 0x13800
 80020ea:	6898      	ldr	r0, [r3, #8]
 80020ec:	f004 0203 	and.w	r2, r4, #3
 80020f0:	0091      	lsls	r1, r2, #2
 80020f2:	220f      	movs	r2, #15
 80020f4:	408a      	lsls	r2, r1
 80020f6:	ea20 0002 	bic.w	r0, r0, r2
 80020fa:	4a0f      	ldr	r2, [pc, #60]	; (8002138 <HAL_GPIO_Init+0x250>)
 80020fc:	4591      	cmp	r9, r2
 80020fe:	f43f af67 	beq.w	8001fd0 <HAL_GPIO_Init+0xe8>
 8002102:	45d9      	cmp	r9, fp
 8002104:	d00e      	beq.n	8002124 <HAL_GPIO_Init+0x23c>
 8002106:	f502 6200 	add.w	r2, r2, #2048	; 0x800
 800210a:	4591      	cmp	r9, r2
 800210c:	d00c      	beq.n	8002128 <HAL_GPIO_Init+0x240>
 800210e:	f502 6280 	add.w	r2, r2, #1024	; 0x400
 8002112:	4591      	cmp	r9, r2
 8002114:	d00a      	beq.n	800212c <HAL_GPIO_Init+0x244>
 8002116:	f502 6280 	add.w	r2, r2, #1024	; 0x400
 800211a:	4591      	cmp	r9, r2
 800211c:	bf0c      	ite	eq
 800211e:	2204      	moveq	r2, #4
 8002120:	2207      	movne	r2, #7
 8002122:	e756      	b.n	8001fd2 <HAL_GPIO_Init+0xea>
 8002124:	2201      	movs	r2, #1
 8002126:	e754      	b.n	8001fd2 <HAL_GPIO_Init+0xea>
 8002128:	2202      	movs	r2, #2
 800212a:	e752      	b.n	8001fd2 <HAL_GPIO_Init+0xea>
 800212c:	2203      	movs	r2, #3
 800212e:	e750      	b.n	8001fd2 <HAL_GPIO_Init+0xea>
 8002130:	b003      	add	sp, #12
 8002132:	e8bd 8ff0 	ldmia.w	sp!, {r4, r5, r6, r7, r8, r9, sl, fp, pc}
 8002136:	bf00      	nop
 8002138:	40020000 	.word	0x40020000
 800213c:	080046a0 	.word	0x080046a0
 8002140:	10110000 	.word	0x10110000
 8002144:	10220000 	.word	0x10220000
 8002148:	40013c00 	.word	0x40013c00
 800214c:	40023800 	.word	0x40023800
 8002150:	40020400 	.word	0x40020400

08002154 <HAL_GPIO_DeInit>:
 8002154:	e92d 4ff0 	stmdb	sp!, {r4, r5, r6, r7, r8, r9, sl, fp, lr}
 8002158:	b083      	sub	sp, #12
 800215a:	4604      	mov	r4, r0
 800215c:	460f      	mov	r7, r1
 800215e:	4b4f      	ldr	r3, [pc, #316]	; (800229c <HAL_GPIO_DeInit+0x148>)
 8002160:	4298      	cmp	r0, r3
 8002162:	d018      	beq.n	8002196 <HAL_GPIO_DeInit+0x42>
 8002164:	f503 6380 	add.w	r3, r3, #1024	; 0x400
 8002168:	4298      	cmp	r0, r3
 800216a:	d014      	beq.n	8002196 <HAL_GPIO_DeInit+0x42>
 800216c:	f503 6380 	add.w	r3, r3, #1024	; 0x400
 8002170:	4298      	cmp	r0, r3
 8002172:	d010      	beq.n	8002196 <HAL_GPIO_DeInit+0x42>
 8002174:	f503 6380 	add.w	r3, r3, #1024	; 0x400
 8002178:	4298      	cmp	r0, r3
 800217a:	d00c      	beq.n	8002196 <HAL_GPIO_DeInit+0x42>
 800217c:	f503 6380 	add.w	r3, r3, #1024	; 0x400
 8002180:	4298      	cmp	r0, r3
 8002182:	d008      	beq.n	8002196 <HAL_GPIO_DeInit+0x42>
 8002184:	f503 6340 	add.w	r3, r3, #3072	; 0xc00
 8002188:	4298      	cmp	r0, r3
 800218a:	d004      	beq.n	8002196 <HAL_GPIO_DeInit+0x42>
 800218c:	f44f 7198 	mov.w	r1, #304	; 0x130
 8002190:	4843      	ldr	r0, [pc, #268]	; (80022a0 <HAL_GPIO_DeInit+0x14c>)
 8002192:	f7ff f945 	bl	8001420 <assert_failed>
 8002196:	2300      	movs	r3, #0
 8002198:	f04f 0801 	mov.w	r8, #1
 800219c:	f04f 0a0f 	mov.w	sl, #15
 80021a0:	f04f 0b03 	mov.w	fp, #3
 80021a4:	f8df 90fc 	ldr.w	r9, [pc, #252]	; 80022a4 <HAL_GPIO_DeInit+0x150>
 80021a8:	e026      	b.n	80021f8 <HAL_GPIO_DeInit+0xa4>
 80021aa:	f04f 0e00 	mov.w	lr, #0
 80021ae:	fa0e f505 	lsl.w	r5, lr, r5
 80021b2:	9e01      	ldr	r6, [sp, #4]
 80021b4:	42b5      	cmp	r5, r6
 80021b6:	d053      	beq.n	8002260 <HAL_GPIO_DeInit+0x10c>
 80021b8:	6821      	ldr	r1, [r4, #0]
 80021ba:	005a      	lsls	r2, r3, #1
 80021bc:	fa0b f202 	lsl.w	r2, fp, r2
 80021c0:	43d2      	mvns	r2, r2
 80021c2:	4011      	ands	r1, r2
 80021c4:	6021      	str	r1, [r4, #0]
 80021c6:	08dd      	lsrs	r5, r3, #3
 80021c8:	eb04 0585 	add.w	r5, r4, r5, lsl #2
 80021cc:	6a2e      	ldr	r6, [r5, #32]
 80021ce:	f003 0107 	and.w	r1, r3, #7
 80021d2:	0089      	lsls	r1, r1, #2
 80021d4:	fa0a f101 	lsl.w	r1, sl, r1
 80021d8:	ea26 0101 	bic.w	r1, r6, r1
 80021dc:	6229      	str	r1, [r5, #32]
 80021de:	68a1      	ldr	r1, [r4, #8]
 80021e0:	4011      	ands	r1, r2
 80021e2:	60a1      	str	r1, [r4, #8]
 80021e4:	6861      	ldr	r1, [r4, #4]
 80021e6:	ea21 0000 	bic.w	r0, r1, r0
 80021ea:	6060      	str	r0, [r4, #4]
 80021ec:	68e1      	ldr	r1, [r4, #12]
 80021ee:	400a      	ands	r2, r1
 80021f0:	60e2      	str	r2, [r4, #12]
 80021f2:	3301      	adds	r3, #1
 80021f4:	2b10      	cmp	r3, #16
 80021f6:	d04d      	beq.n	8002294 <HAL_GPIO_DeInit+0x140>
 80021f8:	fa08 f003 	lsl.w	r0, r8, r3
 80021fc:	ea00 0207 	and.w	r2, r0, r7
 8002200:	4290      	cmp	r0, r2
 8002202:	d1f6      	bne.n	80021f2 <HAL_GPIO_DeInit+0x9e>
 8002204:	f023 0103 	bic.w	r1, r3, #3
 8002208:	f101 4180 	add.w	r1, r1, #1073741824	; 0x40000000
 800220c:	f501 319c 	add.w	r1, r1, #79872	; 0x13800
 8002210:	688e      	ldr	r6, [r1, #8]
 8002212:	f003 0503 	and.w	r5, r3, #3
 8002216:	00ad      	lsls	r5, r5, #2
 8002218:	fa0a fc05 	lsl.w	ip, sl, r5
 800221c:	ea0c 0606 	and.w	r6, ip, r6
 8002220:	9601      	str	r6, [sp, #4]
 8002222:	4e1e      	ldr	r6, [pc, #120]	; (800229c <HAL_GPIO_DeInit+0x148>)
 8002224:	42b4      	cmp	r4, r6
 8002226:	d0c0      	beq.n	80021aa <HAL_GPIO_DeInit+0x56>
 8002228:	f506 6680 	add.w	r6, r6, #1024	; 0x400
 800222c:	42b4      	cmp	r4, r6
 800222e:	d010      	beq.n	8002252 <HAL_GPIO_DeInit+0xfe>
 8002230:	f506 6680 	add.w	r6, r6, #1024	; 0x400
 8002234:	42b4      	cmp	r4, r6
 8002236:	d00e      	beq.n	8002256 <HAL_GPIO_DeInit+0x102>
 8002238:	f506 6680 	add.w	r6, r6, #1024	; 0x400
 800223c:	42b4      	cmp	r4, r6
 800223e:	d00d      	beq.n	800225c <HAL_GPIO_DeInit+0x108>
 8002240:	f506 6680 	add.w	r6, r6, #1024	; 0x400
 8002244:	42b4      	cmp	r4, r6
 8002246:	bf0c      	ite	eq
 8002248:	f04f 0e04 	moveq.w	lr, #4
 800224c:	f04f 0e07 	movne.w	lr, #7
 8002250:	e7ad      	b.n	80021ae <HAL_GPIO_DeInit+0x5a>
 8002252:	46c6      	mov	lr, r8
 8002254:	e7ab      	b.n	80021ae <HAL_GPIO_DeInit+0x5a>
 8002256:	f04f 0e02 	mov.w	lr, #2
 800225a:	e7a8      	b.n	80021ae <HAL_GPIO_DeInit+0x5a>
 800225c:	46de      	mov	lr, fp
 800225e:	e7a6      	b.n	80021ae <HAL_GPIO_DeInit+0x5a>
 8002260:	688d      	ldr	r5, [r1, #8]
 8002262:	ea25 050c 	bic.w	r5, r5, ip
 8002266:	608d      	str	r5, [r1, #8]
 8002268:	f8d9 1000 	ldr.w	r1, [r9]
 800226c:	43d2      	mvns	r2, r2
 800226e:	4011      	ands	r1, r2
 8002270:	f8c9 1000 	str.w	r1, [r9]
 8002274:	f8d9 1004 	ldr.w	r1, [r9, #4]
 8002278:	4011      	ands	r1, r2
 800227a:	f8c9 1004 	str.w	r1, [r9, #4]
 800227e:	f8d9 1008 	ldr.w	r1, [r9, #8]
 8002282:	4011      	ands	r1, r2
 8002284:	f8c9 1008 	str.w	r1, [r9, #8]
 8002288:	f8d9 100c 	ldr.w	r1, [r9, #12]
 800228c:	400a      	ands	r2, r1
 800228e:	f8c9 200c 	str.w	r2, [r9, #12]
 8002292:	e791      	b.n	80021b8 <HAL_GPIO_DeInit+0x64>
 8002294:	b003      	add	sp, #12
 8002296:	e8bd 8ff0 	ldmia.w	sp!, {r4, r5, r6, r7, r8, r9, sl, fp, pc}
 800229a:	bf00      	nop
 800229c:	40020000 	.word	0x40020000
 80022a0:	080046a0 	.word	0x080046a0
 80022a4:	40013c00 	.word	0x40013c00

080022a8 <HAL_GPIO_ReadPin>:
 80022a8:	b538      	push	{r3, r4, r5, lr}
 80022aa:	4605      	mov	r5, r0
 80022ac:	460c      	mov	r4, r1
 80022ae:	b129      	cbz	r1, 80022bc <HAL_GPIO_ReadPin+0x14>
 80022b0:	692b      	ldr	r3, [r5, #16]
 80022b2:	421c      	tst	r4, r3
 80022b4:	bf14      	ite	ne
 80022b6:	2001      	movne	r0, #1
 80022b8:	2000      	moveq	r0, #0
 80022ba:	bd38      	pop	{r3, r4, r5, pc}
 80022bc:	f44f 71bf 	mov.w	r1, #382	; 0x17e
 80022c0:	4801      	ldr	r0, [pc, #4]	; (80022c8 <HAL_GPIO_ReadPin+0x20>)
 80022c2:	f7ff f8ad 	bl	8001420 <assert_failed>
 80022c6:	e7f3      	b.n	80022b0 <HAL_GPIO_ReadPin+0x8>
 80022c8:	080046a0 	.word	0x080046a0

080022cc <HAL_GPIO_WritePin>:
 80022cc:	b570      	push	{r4, r5, r6, lr}
 80022ce:	4606      	mov	r6, r0
 80022d0:	4615      	mov	r5, r2
 80022d2:	460c      	mov	r4, r1
 80022d4:	b129      	cbz	r1, 80022e2 <HAL_GPIO_WritePin+0x16>
 80022d6:	2d01      	cmp	r5, #1
 80022d8:	d809      	bhi.n	80022ee <HAL_GPIO_WritePin+0x22>
 80022da:	b975      	cbnz	r5, 80022fa <HAL_GPIO_WritePin+0x2e>
 80022dc:	0424      	lsls	r4, r4, #16
 80022de:	61b4      	str	r4, [r6, #24]
 80022e0:	bd70      	pop	{r4, r5, r6, pc}
 80022e2:	f240 119f 	movw	r1, #415	; 0x19f
 80022e6:	4806      	ldr	r0, [pc, #24]	; (8002300 <HAL_GPIO_WritePin+0x34>)
 80022e8:	f7ff f89a 	bl	8001420 <assert_failed>
 80022ec:	e7f3      	b.n	80022d6 <HAL_GPIO_WritePin+0xa>
 80022ee:	f44f 71d0 	mov.w	r1, #416	; 0x1a0
 80022f2:	4803      	ldr	r0, [pc, #12]	; (8002300 <HAL_GPIO_WritePin+0x34>)
 80022f4:	f7ff f894 	bl	8001420 <assert_failed>
 80022f8:	e7ef      	b.n	80022da <HAL_GPIO_WritePin+0xe>
 80022fa:	61b4      	str	r4, [r6, #24]
 80022fc:	e7f0      	b.n	80022e0 <HAL_GPIO_WritePin+0x14>
 80022fe:	bf00      	nop
 8002300:	080046a0 	.word	0x080046a0

08002304 <HAL_RCC_OscConfig>:
 8002304:	2800      	cmp	r0, #0
 8002306:	f000 823d 	beq.w	8002784 <HAL_RCC_OscConfig+0x480>
 800230a:	e92d 41f0 	stmdb	sp!, {r4, r5, r6, r7, r8, lr}
 800230e:	b082      	sub	sp, #8
 8002310:	4604      	mov	r4, r0
 8002312:	6803      	ldr	r3, [r0, #0]
 8002314:	2b0f      	cmp	r3, #15
 8002316:	d838      	bhi.n	800238a <HAL_RCC_OscConfig+0x86>
 8002318:	6823      	ldr	r3, [r4, #0]
 800231a:	f013 0f01 	tst.w	r3, #1
 800231e:	d04c      	beq.n	80023ba <HAL_RCC_OscConfig+0xb6>
 8002320:	6863      	ldr	r3, [r4, #4]
 8002322:	f433 3280 	bics.w	r2, r3, #65536	; 0x10000
 8002326:	d002      	beq.n	800232e <HAL_RCC_OscConfig+0x2a>
 8002328:	f5b3 2fa0 	cmp.w	r3, #327680	; 0x50000
 800232c:	d132      	bne.n	8002394 <HAL_RCC_OscConfig+0x90>
 800232e:	4ba6      	ldr	r3, [pc, #664]	; (80025c8 <HAL_RCC_OscConfig+0x2c4>)
 8002330:	689b      	ldr	r3, [r3, #8]
 8002332:	f003 030c 	and.w	r3, r3, #12
 8002336:	2b04      	cmp	r3, #4
 8002338:	d036      	beq.n	80023a8 <HAL_RCC_OscConfig+0xa4>
 800233a:	4ba3      	ldr	r3, [pc, #652]	; (80025c8 <HAL_RCC_OscConfig+0x2c4>)
 800233c:	689b      	ldr	r3, [r3, #8]
 800233e:	f003 030c 	and.w	r3, r3, #12
 8002342:	2b08      	cmp	r3, #8
 8002344:	d02b      	beq.n	800239e <HAL_RCC_OscConfig+0x9a>
 8002346:	6863      	ldr	r3, [r4, #4]
 8002348:	f5b3 3f80 	cmp.w	r3, #65536	; 0x10000
 800234c:	d05f      	beq.n	800240e <HAL_RCC_OscConfig+0x10a>
 800234e:	f5b3 2fa0 	cmp.w	r3, #327680	; 0x50000
 8002352:	d062      	beq.n	800241a <HAL_RCC_OscConfig+0x116>
 8002354:	4b9c      	ldr	r3, [pc, #624]	; (80025c8 <HAL_RCC_OscConfig+0x2c4>)
 8002356:	681a      	ldr	r2, [r3, #0]
 8002358:	f422 3280 	bic.w	r2, r2, #65536	; 0x10000
 800235c:	601a      	str	r2, [r3, #0]
 800235e:	681a      	ldr	r2, [r3, #0]
 8002360:	f422 2280 	bic.w	r2, r2, #262144	; 0x40000
 8002364:	601a      	str	r2, [r3, #0]
 8002366:	6863      	ldr	r3, [r4, #4]
 8002368:	2b00      	cmp	r3, #0
 800236a:	d060      	beq.n	800242e <HAL_RCC_OscConfig+0x12a>
 800236c:	f7ff fca0 	bl	8001cb0 <HAL_GetTick>
 8002370:	4606      	mov	r6, r0
 8002372:	4d95      	ldr	r5, [pc, #596]	; (80025c8 <HAL_RCC_OscConfig+0x2c4>)
 8002374:	682b      	ldr	r3, [r5, #0]
 8002376:	f413 3f00 	tst.w	r3, #131072	; 0x20000
 800237a:	d11e      	bne.n	80023ba <HAL_RCC_OscConfig+0xb6>
 800237c:	f7ff fc98 	bl	8001cb0 <HAL_GetTick>
 8002380:	1b80      	subs	r0, r0, r6
 8002382:	2864      	cmp	r0, #100	; 0x64
 8002384:	d9f6      	bls.n	8002374 <HAL_RCC_OscConfig+0x70>
 8002386:	2003      	movs	r0, #3
 8002388:	e201      	b.n	800278e <HAL_RCC_OscConfig+0x48a>
 800238a:	21e8      	movs	r1, #232	; 0xe8
 800238c:	488f      	ldr	r0, [pc, #572]	; (80025cc <HAL_RCC_OscConfig+0x2c8>)
 800238e:	f7ff f847 	bl	8001420 <assert_failed>
 8002392:	e7c1      	b.n	8002318 <HAL_RCC_OscConfig+0x14>
 8002394:	21ed      	movs	r1, #237	; 0xed
 8002396:	488d      	ldr	r0, [pc, #564]	; (80025cc <HAL_RCC_OscConfig+0x2c8>)
 8002398:	f7ff f842 	bl	8001420 <assert_failed>
 800239c:	e7c7      	b.n	800232e <HAL_RCC_OscConfig+0x2a>
 800239e:	4b8a      	ldr	r3, [pc, #552]	; (80025c8 <HAL_RCC_OscConfig+0x2c4>)
 80023a0:	685b      	ldr	r3, [r3, #4]
 80023a2:	f413 0f80 	tst.w	r3, #4194304	; 0x400000
 80023a6:	d0ce      	beq.n	8002346 <HAL_RCC_OscConfig+0x42>
 80023a8:	4b87      	ldr	r3, [pc, #540]	; (80025c8 <HAL_RCC_OscConfig+0x2c4>)
 80023aa:	681b      	ldr	r3, [r3, #0]
 80023ac:	f413 3f00 	tst.w	r3, #131072	; 0x20000
 80023b0:	d003      	beq.n	80023ba <HAL_RCC_OscConfig+0xb6>
 80023b2:	6863      	ldr	r3, [r4, #4]
 80023b4:	2b00      	cmp	r3, #0
 80023b6:	f000 81e7 	beq.w	8002788 <HAL_RCC_OscConfig+0x484>
 80023ba:	6823      	ldr	r3, [r4, #0]
 80023bc:	f013 0f02 	tst.w	r3, #2
 80023c0:	d067      	beq.n	8002492 <HAL_RCC_OscConfig+0x18e>
 80023c2:	68e3      	ldr	r3, [r4, #12]
 80023c4:	2b01      	cmp	r3, #1
 80023c6:	d841      	bhi.n	800244c <HAL_RCC_OscConfig+0x148>
 80023c8:	6923      	ldr	r3, [r4, #16]
 80023ca:	2b1f      	cmp	r3, #31
 80023cc:	d844      	bhi.n	8002458 <HAL_RCC_OscConfig+0x154>
 80023ce:	4b7e      	ldr	r3, [pc, #504]	; (80025c8 <HAL_RCC_OscConfig+0x2c4>)
 80023d0:	689b      	ldr	r3, [r3, #8]
 80023d2:	f013 0f0c 	tst.w	r3, #12
 80023d6:	d04a      	beq.n	800246e <HAL_RCC_OscConfig+0x16a>
 80023d8:	4b7b      	ldr	r3, [pc, #492]	; (80025c8 <HAL_RCC_OscConfig+0x2c4>)
 80023da:	689b      	ldr	r3, [r3, #8]
 80023dc:	f003 030c 	and.w	r3, r3, #12
 80023e0:	2b08      	cmp	r3, #8
 80023e2:	d03f      	beq.n	8002464 <HAL_RCC_OscConfig+0x160>
 80023e4:	68e3      	ldr	r3, [r4, #12]
 80023e6:	2b00      	cmp	r3, #0
 80023e8:	d077      	beq.n	80024da <HAL_RCC_OscConfig+0x1d6>
 80023ea:	4b79      	ldr	r3, [pc, #484]	; (80025d0 <HAL_RCC_OscConfig+0x2cc>)
 80023ec:	2201      	movs	r2, #1
 80023ee:	601a      	str	r2, [r3, #0]
 80023f0:	f7ff fc5e 	bl	8001cb0 <HAL_GetTick>
 80023f4:	4606      	mov	r6, r0
 80023f6:	4d74      	ldr	r5, [pc, #464]	; (80025c8 <HAL_RCC_OscConfig+0x2c4>)
 80023f8:	682b      	ldr	r3, [r5, #0]
 80023fa:	f013 0f02 	tst.w	r3, #2
 80023fe:	d163      	bne.n	80024c8 <HAL_RCC_OscConfig+0x1c4>
 8002400:	f7ff fc56 	bl	8001cb0 <HAL_GetTick>
 8002404:	1b80      	subs	r0, r0, r6
 8002406:	2802      	cmp	r0, #2
 8002408:	d9f6      	bls.n	80023f8 <HAL_RCC_OscConfig+0xf4>
 800240a:	2003      	movs	r0, #3
 800240c:	e1bf      	b.n	800278e <HAL_RCC_OscConfig+0x48a>
 800240e:	4a6e      	ldr	r2, [pc, #440]	; (80025c8 <HAL_RCC_OscConfig+0x2c4>)
 8002410:	6813      	ldr	r3, [r2, #0]
 8002412:	f443 3380 	orr.w	r3, r3, #65536	; 0x10000
 8002416:	6013      	str	r3, [r2, #0]
 8002418:	e7a5      	b.n	8002366 <HAL_RCC_OscConfig+0x62>
 800241a:	4b6b      	ldr	r3, [pc, #428]	; (80025c8 <HAL_RCC_OscConfig+0x2c4>)
 800241c:	681a      	ldr	r2, [r3, #0]
 800241e:	f442 2280 	orr.w	r2, r2, #262144	; 0x40000
 8002422:	601a      	str	r2, [r3, #0]
 8002424:	681a      	ldr	r2, [r3, #0]
 8002426:	f442 3280 	orr.w	r2, r2, #65536	; 0x10000
 800242a:	601a      	str	r2, [r3, #0]
 800242c:	e79b      	b.n	8002366 <HAL_RCC_OscConfig+0x62>
 800242e:	f7ff fc3f 	bl	8001cb0 <HAL_GetTick>
 8002432:	4606      	mov	r6, r0
 8002434:	4d64      	ldr	r5, [pc, #400]	; (80025c8 <HAL_RCC_OscConfig+0x2c4>)
 8002436:	682b      	ldr	r3, [r5, #0]
 8002438:	f413 3f00 	tst.w	r3, #131072	; 0x20000
 800243c:	d0bd      	beq.n	80023ba <HAL_RCC_OscConfig+0xb6>
 800243e:	f7ff fc37 	bl	8001cb0 <HAL_GetTick>
 8002442:	1b80      	subs	r0, r0, r6
 8002444:	2864      	cmp	r0, #100	; 0x64
 8002446:	d9f6      	bls.n	8002436 <HAL_RCC_OscConfig+0x132>
 8002448:	2003      	movs	r0, #3
 800244a:	e1a0      	b.n	800278e <HAL_RCC_OscConfig+0x48a>
 800244c:	f240 111f 	movw	r1, #287	; 0x11f
 8002450:	485e      	ldr	r0, [pc, #376]	; (80025cc <HAL_RCC_OscConfig+0x2c8>)
 8002452:	f7fe ffe5 	bl	8001420 <assert_failed>
 8002456:	e7b7      	b.n	80023c8 <HAL_RCC_OscConfig+0xc4>
 8002458:	f44f 7190 	mov.w	r1, #288	; 0x120
 800245c:	485b      	ldr	r0, [pc, #364]	; (80025cc <HAL_RCC_OscConfig+0x2c8>)
 800245e:	f7fe ffdf 	bl	8001420 <assert_failed>
 8002462:	e7b4      	b.n	80023ce <HAL_RCC_OscConfig+0xca>
 8002464:	4b58      	ldr	r3, [pc, #352]	; (80025c8 <HAL_RCC_OscConfig+0x2c4>)
 8002466:	685b      	ldr	r3, [r3, #4]
 8002468:	f413 0f80 	tst.w	r3, #4194304	; 0x400000
 800246c:	d1ba      	bne.n	80023e4 <HAL_RCC_OscConfig+0xe0>
 800246e:	4b56      	ldr	r3, [pc, #344]	; (80025c8 <HAL_RCC_OscConfig+0x2c4>)
 8002470:	681b      	ldr	r3, [r3, #0]
 8002472:	f013 0f02 	tst.w	r3, #2
 8002476:	d004      	beq.n	8002482 <HAL_RCC_OscConfig+0x17e>
 8002478:	68e3      	ldr	r3, [r4, #12]
 800247a:	2b01      	cmp	r3, #1
 800247c:	d001      	beq.n	8002482 <HAL_RCC_OscConfig+0x17e>
 800247e:	2001      	movs	r0, #1
 8002480:	e185      	b.n	800278e <HAL_RCC_OscConfig+0x48a>
 8002482:	4a51      	ldr	r2, [pc, #324]	; (80025c8 <HAL_RCC_OscConfig+0x2c4>)
 8002484:	6813      	ldr	r3, [r2, #0]
 8002486:	6921      	ldr	r1, [r4, #16]
 8002488:	f023 03f8 	bic.w	r3, r3, #248	; 0xf8
 800248c:	ea43 03c1 	orr.w	r3, r3, r1, lsl #3
 8002490:	6013      	str	r3, [r2, #0]
 8002492:	6823      	ldr	r3, [r4, #0]
 8002494:	f013 0f08 	tst.w	r3, #8
 8002498:	d049      	beq.n	800252e <HAL_RCC_OscConfig+0x22a>
 800249a:	6963      	ldr	r3, [r4, #20]
 800249c:	2b01      	cmp	r3, #1
 800249e:	d82e      	bhi.n	80024fe <HAL_RCC_OscConfig+0x1fa>
 80024a0:	6963      	ldr	r3, [r4, #20]
 80024a2:	b393      	cbz	r3, 800250a <HAL_RCC_OscConfig+0x206>
 80024a4:	4b4b      	ldr	r3, [pc, #300]	; (80025d4 <HAL_RCC_OscConfig+0x2d0>)
 80024a6:	2201      	movs	r2, #1
 80024a8:	601a      	str	r2, [r3, #0]
 80024aa:	f7ff fc01 	bl	8001cb0 <HAL_GetTick>
 80024ae:	4606      	mov	r6, r0
 80024b0:	4d45      	ldr	r5, [pc, #276]	; (80025c8 <HAL_RCC_OscConfig+0x2c4>)
 80024b2:	6f6b      	ldr	r3, [r5, #116]	; 0x74
 80024b4:	f013 0f02 	tst.w	r3, #2
 80024b8:	d139      	bne.n	800252e <HAL_RCC_OscConfig+0x22a>
 80024ba:	f7ff fbf9 	bl	8001cb0 <HAL_GetTick>
 80024be:	1b80      	subs	r0, r0, r6
 80024c0:	2802      	cmp	r0, #2
 80024c2:	d9f6      	bls.n	80024b2 <HAL_RCC_OscConfig+0x1ae>
 80024c4:	2003      	movs	r0, #3
 80024c6:	e162      	b.n	800278e <HAL_RCC_OscConfig+0x48a>
 80024c8:	4a3f      	ldr	r2, [pc, #252]	; (80025c8 <HAL_RCC_OscConfig+0x2c4>)
 80024ca:	6813      	ldr	r3, [r2, #0]
 80024cc:	6921      	ldr	r1, [r4, #16]
 80024ce:	f023 03f8 	bic.w	r3, r3, #248	; 0xf8
 80024d2:	ea43 03c1 	orr.w	r3, r3, r1, lsl #3
 80024d6:	6013      	str	r3, [r2, #0]
 80024d8:	e7db      	b.n	8002492 <HAL_RCC_OscConfig+0x18e>
 80024da:	4b3d      	ldr	r3, [pc, #244]	; (80025d0 <HAL_RCC_OscConfig+0x2cc>)
 80024dc:	2200      	movs	r2, #0
 80024de:	601a      	str	r2, [r3, #0]
 80024e0:	f7ff fbe6 	bl	8001cb0 <HAL_GetTick>
 80024e4:	4606      	mov	r6, r0
 80024e6:	4d38      	ldr	r5, [pc, #224]	; (80025c8 <HAL_RCC_OscConfig+0x2c4>)
 80024e8:	682b      	ldr	r3, [r5, #0]
 80024ea:	f013 0f02 	tst.w	r3, #2
 80024ee:	d0d0      	beq.n	8002492 <HAL_RCC_OscConfig+0x18e>
 80024f0:	f7ff fbde 	bl	8001cb0 <HAL_GetTick>
 80024f4:	1b80      	subs	r0, r0, r6
 80024f6:	2802      	cmp	r0, #2
 80024f8:	d9f6      	bls.n	80024e8 <HAL_RCC_OscConfig+0x1e4>
 80024fa:	2003      	movs	r0, #3
 80024fc:	e147      	b.n	800278e <HAL_RCC_OscConfig+0x48a>
 80024fe:	f44f 71b0 	mov.w	r1, #352	; 0x160
 8002502:	4832      	ldr	r0, [pc, #200]	; (80025cc <HAL_RCC_OscConfig+0x2c8>)
 8002504:	f7fe ff8c 	bl	8001420 <assert_failed>
 8002508:	e7ca      	b.n	80024a0 <HAL_RCC_OscConfig+0x19c>
 800250a:	4b32      	ldr	r3, [pc, #200]	; (80025d4 <HAL_RCC_OscConfig+0x2d0>)
 800250c:	2200      	movs	r2, #0
 800250e:	601a      	str	r2, [r3, #0]
 8002510:	f7ff fbce 	bl	8001cb0 <HAL_GetTick>
 8002514:	4606      	mov	r6, r0
 8002516:	4d2c      	ldr	r5, [pc, #176]	; (80025c8 <HAL_RCC_OscConfig+0x2c4>)
 8002518:	6f6b      	ldr	r3, [r5, #116]	; 0x74
 800251a:	f013 0f02 	tst.w	r3, #2
 800251e:	d006      	beq.n	800252e <HAL_RCC_OscConfig+0x22a>
 8002520:	f7ff fbc6 	bl	8001cb0 <HAL_GetTick>
 8002524:	1b80      	subs	r0, r0, r6
 8002526:	2802      	cmp	r0, #2
 8002528:	d9f6      	bls.n	8002518 <HAL_RCC_OscConfig+0x214>
 800252a:	2003      	movs	r0, #3
 800252c:	e12f      	b.n	800278e <HAL_RCC_OscConfig+0x48a>
 800252e:	6823      	ldr	r3, [r4, #0]
 8002530:	f013 0f04 	tst.w	r3, #4
 8002534:	f000 808a 	beq.w	800264c <HAL_RCC_OscConfig+0x348>
 8002538:	68a3      	ldr	r3, [r4, #8]
 800253a:	2b01      	cmp	r3, #1
 800253c:	d901      	bls.n	8002542 <HAL_RCC_OscConfig+0x23e>
 800253e:	2b05      	cmp	r3, #5
 8002540:	d139      	bne.n	80025b6 <HAL_RCC_OscConfig+0x2b2>
 8002542:	4b21      	ldr	r3, [pc, #132]	; (80025c8 <HAL_RCC_OscConfig+0x2c4>)
 8002544:	6c1b      	ldr	r3, [r3, #64]	; 0x40
 8002546:	f013 5f80 	tst.w	r3, #268435456	; 0x10000000
 800254a:	d13a      	bne.n	80025c2 <HAL_RCC_OscConfig+0x2be>
 800254c:	2300      	movs	r3, #0
 800254e:	9301      	str	r3, [sp, #4]
 8002550:	4b1d      	ldr	r3, [pc, #116]	; (80025c8 <HAL_RCC_OscConfig+0x2c4>)
 8002552:	6c1a      	ldr	r2, [r3, #64]	; 0x40
 8002554:	f042 5280 	orr.w	r2, r2, #268435456	; 0x10000000
 8002558:	641a      	str	r2, [r3, #64]	; 0x40
 800255a:	6c1b      	ldr	r3, [r3, #64]	; 0x40
 800255c:	f003 5380 	and.w	r3, r3, #268435456	; 0x10000000
 8002560:	9301      	str	r3, [sp, #4]
 8002562:	9b01      	ldr	r3, [sp, #4]
 8002564:	2501      	movs	r5, #1
 8002566:	4b1c      	ldr	r3, [pc, #112]	; (80025d8 <HAL_RCC_OscConfig+0x2d4>)
 8002568:	681b      	ldr	r3, [r3, #0]
 800256a:	f413 7f80 	tst.w	r3, #256	; 0x100
 800256e:	d035      	beq.n	80025dc <HAL_RCC_OscConfig+0x2d8>
 8002570:	68a3      	ldr	r3, [r4, #8]
 8002572:	2b01      	cmp	r3, #1
 8002574:	d046      	beq.n	8002604 <HAL_RCC_OscConfig+0x300>
 8002576:	2b05      	cmp	r3, #5
 8002578:	d04a      	beq.n	8002610 <HAL_RCC_OscConfig+0x30c>
 800257a:	4b13      	ldr	r3, [pc, #76]	; (80025c8 <HAL_RCC_OscConfig+0x2c4>)
 800257c:	6f1a      	ldr	r2, [r3, #112]	; 0x70
 800257e:	f022 0201 	bic.w	r2, r2, #1
 8002582:	671a      	str	r2, [r3, #112]	; 0x70
 8002584:	6f1a      	ldr	r2, [r3, #112]	; 0x70
 8002586:	f022 0204 	bic.w	r2, r2, #4
 800258a:	671a      	str	r2, [r3, #112]	; 0x70
 800258c:	68a3      	ldr	r3, [r4, #8]
 800258e:	2b00      	cmp	r3, #0
 8002590:	d048      	beq.n	8002624 <HAL_RCC_OscConfig+0x320>
 8002592:	f7ff fb8d 	bl	8001cb0 <HAL_GetTick>
 8002596:	4680      	mov	r8, r0
 8002598:	4e0b      	ldr	r6, [pc, #44]	; (80025c8 <HAL_RCC_OscConfig+0x2c4>)
 800259a:	f241 3788 	movw	r7, #5000	; 0x1388
 800259e:	6f33      	ldr	r3, [r6, #112]	; 0x70
 80025a0:	f013 0f02 	tst.w	r3, #2
 80025a4:	d150      	bne.n	8002648 <HAL_RCC_OscConfig+0x344>
 80025a6:	f7ff fb83 	bl	8001cb0 <HAL_GetTick>
 80025aa:	eba0 0008 	sub.w	r0, r0, r8
 80025ae:	42b8      	cmp	r0, r7
 80025b0:	d9f5      	bls.n	800259e <HAL_RCC_OscConfig+0x29a>
 80025b2:	2003      	movs	r0, #3
 80025b4:	e0eb      	b.n	800278e <HAL_RCC_OscConfig+0x48a>
 80025b6:	f44f 71c6 	mov.w	r1, #396	; 0x18c
 80025ba:	4804      	ldr	r0, [pc, #16]	; (80025cc <HAL_RCC_OscConfig+0x2c8>)
 80025bc:	f7fe ff30 	bl	8001420 <assert_failed>
 80025c0:	e7bf      	b.n	8002542 <HAL_RCC_OscConfig+0x23e>
 80025c2:	2500      	movs	r5, #0
 80025c4:	e7cf      	b.n	8002566 <HAL_RCC_OscConfig+0x262>
 80025c6:	bf00      	nop
 80025c8:	40023800 	.word	0x40023800
 80025cc:	080046dc 	.word	0x080046dc
 80025d0:	42470000 	.word	0x42470000
 80025d4:	42470e80 	.word	0x42470e80
 80025d8:	40007000 	.word	0x40007000
 80025dc:	4a6e      	ldr	r2, [pc, #440]	; (8002798 <HAL_RCC_OscConfig+0x494>)
 80025de:	6813      	ldr	r3, [r2, #0]
 80025e0:	f443 7380 	orr.w	r3, r3, #256	; 0x100
 80025e4:	6013      	str	r3, [r2, #0]
 80025e6:	f7ff fb63 	bl	8001cb0 <HAL_GetTick>
 80025ea:	4607      	mov	r7, r0
 80025ec:	4e6a      	ldr	r6, [pc, #424]	; (8002798 <HAL_RCC_OscConfig+0x494>)
 80025ee:	6833      	ldr	r3, [r6, #0]
 80025f0:	f413 7f80 	tst.w	r3, #256	; 0x100
 80025f4:	d1bc      	bne.n	8002570 <HAL_RCC_OscConfig+0x26c>
 80025f6:	f7ff fb5b 	bl	8001cb0 <HAL_GetTick>
 80025fa:	1bc0      	subs	r0, r0, r7
 80025fc:	2802      	cmp	r0, #2
 80025fe:	d9f6      	bls.n	80025ee <HAL_RCC_OscConfig+0x2ea>
 8002600:	2003      	movs	r0, #3
 8002602:	e0c4      	b.n	800278e <HAL_RCC_OscConfig+0x48a>
 8002604:	4a65      	ldr	r2, [pc, #404]	; (800279c <HAL_RCC_OscConfig+0x498>)
 8002606:	6f13      	ldr	r3, [r2, #112]	; 0x70
 8002608:	f043 0301 	orr.w	r3, r3, #1
 800260c:	6713      	str	r3, [r2, #112]	; 0x70
 800260e:	e7bd      	b.n	800258c <HAL_RCC_OscConfig+0x288>
 8002610:	4b62      	ldr	r3, [pc, #392]	; (800279c <HAL_RCC_OscConfig+0x498>)
 8002612:	6f1a      	ldr	r2, [r3, #112]	; 0x70
 8002614:	f042 0204 	orr.w	r2, r2, #4
 8002618:	671a      	str	r2, [r3, #112]	; 0x70
 800261a:	6f1a      	ldr	r2, [r3, #112]	; 0x70
 800261c:	f042 0201 	orr.w	r2, r2, #1
 8002620:	671a      	str	r2, [r3, #112]	; 0x70
 8002622:	e7b3      	b.n	800258c <HAL_RCC_OscConfig+0x288>
 8002624:	f7ff fb44 	bl	8001cb0 <HAL_GetTick>
 8002628:	4680      	mov	r8, r0
 800262a:	4e5c      	ldr	r6, [pc, #368]	; (800279c <HAL_RCC_OscConfig+0x498>)
 800262c:	f241 3788 	movw	r7, #5000	; 0x1388
 8002630:	6f33      	ldr	r3, [r6, #112]	; 0x70
 8002632:	f013 0f02 	tst.w	r3, #2
 8002636:	d007      	beq.n	8002648 <HAL_RCC_OscConfig+0x344>
 8002638:	f7ff fb3a 	bl	8001cb0 <HAL_GetTick>
 800263c:	eba0 0008 	sub.w	r0, r0, r8
 8002640:	42b8      	cmp	r0, r7
 8002642:	d9f5      	bls.n	8002630 <HAL_RCC_OscConfig+0x32c>
 8002644:	2003      	movs	r0, #3
 8002646:	e0a2      	b.n	800278e <HAL_RCC_OscConfig+0x48a>
 8002648:	2d00      	cmp	r5, #0
 800264a:	d13f      	bne.n	80026cc <HAL_RCC_OscConfig+0x3c8>
 800264c:	69a3      	ldr	r3, [r4, #24]
 800264e:	2b02      	cmp	r3, #2
 8002650:	d842      	bhi.n	80026d8 <HAL_RCC_OscConfig+0x3d4>
 8002652:	69a3      	ldr	r3, [r4, #24]
 8002654:	2b00      	cmp	r3, #0
 8002656:	f000 8099 	beq.w	800278c <HAL_RCC_OscConfig+0x488>
 800265a:	4a50      	ldr	r2, [pc, #320]	; (800279c <HAL_RCC_OscConfig+0x498>)
 800265c:	6892      	ldr	r2, [r2, #8]
 800265e:	f002 020c 	and.w	r2, r2, #12
 8002662:	2a08      	cmp	r2, #8
 8002664:	f000 8096 	beq.w	8002794 <HAL_RCC_OscConfig+0x490>
 8002668:	2b02      	cmp	r3, #2
 800266a:	d177      	bne.n	800275c <HAL_RCC_OscConfig+0x458>
 800266c:	69e3      	ldr	r3, [r4, #28]
 800266e:	f433 0380 	bics.w	r3, r3, #4194304	; 0x400000
 8002672:	d004      	beq.n	800267e <HAL_RCC_OscConfig+0x37a>
 8002674:	f44f 71ec 	mov.w	r1, #472	; 0x1d8
 8002678:	4849      	ldr	r0, [pc, #292]	; (80027a0 <HAL_RCC_OscConfig+0x49c>)
 800267a:	f7fe fed1 	bl	8001420 <assert_failed>
 800267e:	6a23      	ldr	r3, [r4, #32]
 8002680:	2b3f      	cmp	r3, #63	; 0x3f
 8002682:	d82f      	bhi.n	80026e4 <HAL_RCC_OscConfig+0x3e0>
 8002684:	6a63      	ldr	r3, [r4, #36]	; 0x24
 8002686:	3b32      	subs	r3, #50	; 0x32
 8002688:	f5b3 7fbf 	cmp.w	r3, #382	; 0x17e
 800268c:	d830      	bhi.n	80026f0 <HAL_RCC_OscConfig+0x3ec>
 800268e:	6aa2      	ldr	r2, [r4, #40]	; 0x28
 8002690:	2a08      	cmp	r2, #8
 8002692:	d833      	bhi.n	80026fc <HAL_RCC_OscConfig+0x3f8>
 8002694:	f44f 73aa 	mov.w	r3, #340	; 0x154
 8002698:	40d3      	lsrs	r3, r2
 800269a:	f013 0f01 	tst.w	r3, #1
 800269e:	d02d      	beq.n	80026fc <HAL_RCC_OscConfig+0x3f8>
 80026a0:	6ae3      	ldr	r3, [r4, #44]	; 0x2c
 80026a2:	3b02      	subs	r3, #2
 80026a4:	2b0d      	cmp	r3, #13
 80026a6:	d82f      	bhi.n	8002708 <HAL_RCC_OscConfig+0x404>
 80026a8:	4b3e      	ldr	r3, [pc, #248]	; (80027a4 <HAL_RCC_OscConfig+0x4a0>)
 80026aa:	2200      	movs	r2, #0
 80026ac:	601a      	str	r2, [r3, #0]
 80026ae:	f7ff faff 	bl	8001cb0 <HAL_GetTick>
 80026b2:	4606      	mov	r6, r0
 80026b4:	4d39      	ldr	r5, [pc, #228]	; (800279c <HAL_RCC_OscConfig+0x498>)
 80026b6:	682b      	ldr	r3, [r5, #0]
 80026b8:	f013 7f00 	tst.w	r3, #33554432	; 0x2000000
 80026bc:	d02a      	beq.n	8002714 <HAL_RCC_OscConfig+0x410>
 80026be:	f7ff faf7 	bl	8001cb0 <HAL_GetTick>
 80026c2:	1b80      	subs	r0, r0, r6
 80026c4:	2802      	cmp	r0, #2
 80026c6:	d9f6      	bls.n	80026b6 <HAL_RCC_OscConfig+0x3b2>
 80026c8:	2003      	movs	r0, #3
 80026ca:	e060      	b.n	800278e <HAL_RCC_OscConfig+0x48a>
 80026cc:	4a33      	ldr	r2, [pc, #204]	; (800279c <HAL_RCC_OscConfig+0x498>)
 80026ce:	6c13      	ldr	r3, [r2, #64]	; 0x40
 80026d0:	f023 5380 	bic.w	r3, r3, #268435456	; 0x10000000
 80026d4:	6413      	str	r3, [r2, #64]	; 0x40
 80026d6:	e7b9      	b.n	800264c <HAL_RCC_OscConfig+0x348>
 80026d8:	f240 11cf 	movw	r1, #463	; 0x1cf
 80026dc:	4830      	ldr	r0, [pc, #192]	; (80027a0 <HAL_RCC_OscConfig+0x49c>)
 80026de:	f7fe fe9f 	bl	8001420 <assert_failed>
 80026e2:	e7b6      	b.n	8002652 <HAL_RCC_OscConfig+0x34e>
 80026e4:	f240 11d9 	movw	r1, #473	; 0x1d9
 80026e8:	482d      	ldr	r0, [pc, #180]	; (80027a0 <HAL_RCC_OscConfig+0x49c>)
 80026ea:	f7fe fe99 	bl	8001420 <assert_failed>
 80026ee:	e7c9      	b.n	8002684 <HAL_RCC_OscConfig+0x380>
 80026f0:	f44f 71ed 	mov.w	r1, #474	; 0x1da
 80026f4:	482a      	ldr	r0, [pc, #168]	; (80027a0 <HAL_RCC_OscConfig+0x49c>)
 80026f6:	f7fe fe93 	bl	8001420 <assert_failed>
 80026fa:	e7c8      	b.n	800268e <HAL_RCC_OscConfig+0x38a>
 80026fc:	f240 11db 	movw	r1, #475	; 0x1db
 8002700:	4827      	ldr	r0, [pc, #156]	; (80027a0 <HAL_RCC_OscConfig+0x49c>)
 8002702:	f7fe fe8d 	bl	8001420 <assert_failed>
 8002706:	e7cb      	b.n	80026a0 <HAL_RCC_OscConfig+0x39c>
 8002708:	f44f 71ee 	mov.w	r1, #476	; 0x1dc
 800270c:	4824      	ldr	r0, [pc, #144]	; (80027a0 <HAL_RCC_OscConfig+0x49c>)
 800270e:	f7fe fe87 	bl	8001420 <assert_failed>
 8002712:	e7c9      	b.n	80026a8 <HAL_RCC_OscConfig+0x3a4>
 8002714:	69e3      	ldr	r3, [r4, #28]
 8002716:	6a22      	ldr	r2, [r4, #32]
 8002718:	4313      	orrs	r3, r2
 800271a:	6a62      	ldr	r2, [r4, #36]	; 0x24
 800271c:	ea43 1382 	orr.w	r3, r3, r2, lsl #6
 8002720:	6ae2      	ldr	r2, [r4, #44]	; 0x2c
 8002722:	ea43 6302 	orr.w	r3, r3, r2, lsl #24
 8002726:	6aa2      	ldr	r2, [r4, #40]	; 0x28
 8002728:	0852      	lsrs	r2, r2, #1
 800272a:	3a01      	subs	r2, #1
 800272c:	ea43 4302 	orr.w	r3, r3, r2, lsl #16
 8002730:	4a1a      	ldr	r2, [pc, #104]	; (800279c <HAL_RCC_OscConfig+0x498>)
 8002732:	6053      	str	r3, [r2, #4]
 8002734:	4b1b      	ldr	r3, [pc, #108]	; (80027a4 <HAL_RCC_OscConfig+0x4a0>)
 8002736:	2201      	movs	r2, #1
 8002738:	601a      	str	r2, [r3, #0]
 800273a:	f7ff fab9 	bl	8001cb0 <HAL_GetTick>
 800273e:	4605      	mov	r5, r0
 8002740:	4c16      	ldr	r4, [pc, #88]	; (800279c <HAL_RCC_OscConfig+0x498>)
 8002742:	6823      	ldr	r3, [r4, #0]
 8002744:	f013 7f00 	tst.w	r3, #33554432	; 0x2000000
 8002748:	d106      	bne.n	8002758 <HAL_RCC_OscConfig+0x454>
 800274a:	f7ff fab1 	bl	8001cb0 <HAL_GetTick>
 800274e:	1b40      	subs	r0, r0, r5
 8002750:	2802      	cmp	r0, #2
 8002752:	d9f6      	bls.n	8002742 <HAL_RCC_OscConfig+0x43e>
 8002754:	2003      	movs	r0, #3
 8002756:	e01a      	b.n	800278e <HAL_RCC_OscConfig+0x48a>
 8002758:	2000      	movs	r0, #0
 800275a:	e018      	b.n	800278e <HAL_RCC_OscConfig+0x48a>
 800275c:	4b11      	ldr	r3, [pc, #68]	; (80027a4 <HAL_RCC_OscConfig+0x4a0>)
 800275e:	2200      	movs	r2, #0
 8002760:	601a      	str	r2, [r3, #0]
 8002762:	f7ff faa5 	bl	8001cb0 <HAL_GetTick>
 8002766:	4605      	mov	r5, r0
 8002768:	4c0c      	ldr	r4, [pc, #48]	; (800279c <HAL_RCC_OscConfig+0x498>)
 800276a:	6823      	ldr	r3, [r4, #0]
 800276c:	f013 7f00 	tst.w	r3, #33554432	; 0x2000000
 8002770:	d006      	beq.n	8002780 <HAL_RCC_OscConfig+0x47c>
 8002772:	f7ff fa9d 	bl	8001cb0 <HAL_GetTick>
 8002776:	1b40      	subs	r0, r0, r5
 8002778:	2802      	cmp	r0, #2
 800277a:	d9f6      	bls.n	800276a <HAL_RCC_OscConfig+0x466>
 800277c:	2003      	movs	r0, #3
 800277e:	e006      	b.n	800278e <HAL_RCC_OscConfig+0x48a>
 8002780:	2000      	movs	r0, #0
 8002782:	e004      	b.n	800278e <HAL_RCC_OscConfig+0x48a>
 8002784:	2001      	movs	r0, #1
 8002786:	4770      	bx	lr
 8002788:	2001      	movs	r0, #1
 800278a:	e000      	b.n	800278e <HAL_RCC_OscConfig+0x48a>
 800278c:	2000      	movs	r0, #0
 800278e:	b002      	add	sp, #8
 8002790:	e8bd 81f0 	ldmia.w	sp!, {r4, r5, r6, r7, r8, pc}
 8002794:	2001      	movs	r0, #1
 8002796:	e7fa      	b.n	800278e <HAL_RCC_OscConfig+0x48a>
 8002798:	40007000 	.word	0x40007000
 800279c:	40023800 	.word	0x40023800
 80027a0:	080046dc 	.word	0x080046dc
 80027a4:	42470060 	.word	0x42470060

080027a8 <HAL_RCC_GetSysClockFreq>:
 80027a8:	4b32      	ldr	r3, [pc, #200]	; (8002874 <HAL_RCC_GetSysClockFreq+0xcc>)
 80027aa:	689b      	ldr	r3, [r3, #8]
 80027ac:	f003 030c 	and.w	r3, r3, #12
 80027b0:	2b04      	cmp	r3, #4
 80027b2:	d003      	beq.n	80027bc <HAL_RCC_GetSysClockFreq+0x14>
 80027b4:	2b08      	cmp	r3, #8
 80027b6:	d003      	beq.n	80027c0 <HAL_RCC_GetSysClockFreq+0x18>
 80027b8:	482f      	ldr	r0, [pc, #188]	; (8002878 <HAL_RCC_GetSysClockFreq+0xd0>)
 80027ba:	4770      	bx	lr
 80027bc:	482f      	ldr	r0, [pc, #188]	; (800287c <HAL_RCC_GetSysClockFreq+0xd4>)
 80027be:	4770      	bx	lr
 80027c0:	e92d 4bf0 	stmdb	sp!, {r4, r5, r6, r7, r8, r9, fp, lr}
 80027c4:	4b2b      	ldr	r3, [pc, #172]	; (8002874 <HAL_RCC_GetSysClockFreq+0xcc>)
 80027c6:	685a      	ldr	r2, [r3, #4]
 80027c8:	f002 023f 	and.w	r2, r2, #63	; 0x3f
 80027cc:	685b      	ldr	r3, [r3, #4]
 80027ce:	f413 0f80 	tst.w	r3, #4194304	; 0x400000
 80027d2:	d02b      	beq.n	800282c <HAL_RCC_GetSysClockFreq+0x84>
 80027d4:	4b27      	ldr	r3, [pc, #156]	; (8002874 <HAL_RCC_GetSysClockFreq+0xcc>)
 80027d6:	685b      	ldr	r3, [r3, #4]
 80027d8:	f3c3 1388 	ubfx	r3, r3, #6, #9
 80027dc:	461e      	mov	r6, r3
 80027de:	2700      	movs	r7, #0
 80027e0:	015c      	lsls	r4, r3, #5
 80027e2:	2500      	movs	r5, #0
 80027e4:	1ae4      	subs	r4, r4, r3
 80027e6:	eb65 0507 	sbc.w	r5, r5, r7
 80027ea:	01a9      	lsls	r1, r5, #6
 80027ec:	ea41 6194 	orr.w	r1, r1, r4, lsr #26
 80027f0:	01a0      	lsls	r0, r4, #6
 80027f2:	1b00      	subs	r0, r0, r4
 80027f4:	eb61 0105 	sbc.w	r1, r1, r5
 80027f8:	00cb      	lsls	r3, r1, #3
 80027fa:	ea43 7350 	orr.w	r3, r3, r0, lsr #29
 80027fe:	00c4      	lsls	r4, r0, #3
 8002800:	19a0      	adds	r0, r4, r6
 8002802:	eb43 0107 	adc.w	r1, r3, r7
 8002806:	024b      	lsls	r3, r1, #9
 8002808:	ea43 53d0 	orr.w	r3, r3, r0, lsr #23
 800280c:	0244      	lsls	r4, r0, #9
 800280e:	4620      	mov	r0, r4
 8002810:	4619      	mov	r1, r3
 8002812:	2300      	movs	r3, #0
 8002814:	f7fd fefc 	bl	8000610 <__aeabi_uldivmod>
 8002818:	4b16      	ldr	r3, [pc, #88]	; (8002874 <HAL_RCC_GetSysClockFreq+0xcc>)
 800281a:	685b      	ldr	r3, [r3, #4]
 800281c:	f3c3 4301 	ubfx	r3, r3, #16, #2
 8002820:	3301      	adds	r3, #1
 8002822:	005b      	lsls	r3, r3, #1
 8002824:	fbb0 f0f3 	udiv	r0, r0, r3
 8002828:	e8bd 8bf0 	ldmia.w	sp!, {r4, r5, r6, r7, r8, r9, fp, pc}
 800282c:	4b11      	ldr	r3, [pc, #68]	; (8002874 <HAL_RCC_GetSysClockFreq+0xcc>)
 800282e:	685b      	ldr	r3, [r3, #4]
 8002830:	f3c3 1388 	ubfx	r3, r3, #6, #9
 8002834:	461e      	mov	r6, r3
 8002836:	2700      	movs	r7, #0
 8002838:	015c      	lsls	r4, r3, #5
 800283a:	2500      	movs	r5, #0
 800283c:	1ae4      	subs	r4, r4, r3
 800283e:	eb65 0507 	sbc.w	r5, r5, r7
 8002842:	01a9      	lsls	r1, r5, #6
 8002844:	ea41 6194 	orr.w	r1, r1, r4, lsr #26
 8002848:	01a0      	lsls	r0, r4, #6
 800284a:	1b00      	subs	r0, r0, r4
 800284c:	eb61 0105 	sbc.w	r1, r1, r5
 8002850:	00cb      	lsls	r3, r1, #3
 8002852:	ea43 7350 	orr.w	r3, r3, r0, lsr #29
 8002856:	00c4      	lsls	r4, r0, #3
 8002858:	19a0      	adds	r0, r4, r6
 800285a:	eb43 0107 	adc.w	r1, r3, r7
 800285e:	028b      	lsls	r3, r1, #10
 8002860:	ea43 5390 	orr.w	r3, r3, r0, lsr #22
 8002864:	0284      	lsls	r4, r0, #10
 8002866:	4620      	mov	r0, r4
 8002868:	4619      	mov	r1, r3
 800286a:	2300      	movs	r3, #0
 800286c:	f7fd fed0 	bl	8000610 <__aeabi_uldivmod>
 8002870:	e7d2      	b.n	8002818 <HAL_RCC_GetSysClockFreq+0x70>
 8002872:	bf00      	nop
 8002874:	40023800 	.word	0x40023800
 8002878:	00f42400 	.word	0x00f42400
 800287c:	007a1200 	.word	0x007a1200

08002880 <HAL_RCC_ClockConfig>:
 8002880:	2800      	cmp	r0, #0
 8002882:	f000 80f6 	beq.w	8002a72 <HAL_RCC_ClockConfig+0x1f2>
 8002886:	e92d 41f0 	stmdb	sp!, {r4, r5, r6, r7, r8, lr}
 800288a:	4604      	mov	r4, r0
 800288c:	460d      	mov	r5, r1
 800288e:	6803      	ldr	r3, [r0, #0]
 8002890:	3b01      	subs	r3, #1
 8002892:	2b0e      	cmp	r3, #14
 8002894:	d812      	bhi.n	80028bc <HAL_RCC_ClockConfig+0x3c>
 8002896:	2d07      	cmp	r5, #7
 8002898:	d816      	bhi.n	80028c8 <HAL_RCC_ClockConfig+0x48>
 800289a:	4b78      	ldr	r3, [pc, #480]	; (8002a7c <HAL_RCC_ClockConfig+0x1fc>)
 800289c:	681b      	ldr	r3, [r3, #0]
 800289e:	f003 030f 	and.w	r3, r3, #15
 80028a2:	42ab      	cmp	r3, r5
 80028a4:	d216      	bcs.n	80028d4 <HAL_RCC_ClockConfig+0x54>
 80028a6:	b2eb      	uxtb	r3, r5
 80028a8:	4a74      	ldr	r2, [pc, #464]	; (8002a7c <HAL_RCC_ClockConfig+0x1fc>)
 80028aa:	7013      	strb	r3, [r2, #0]
 80028ac:	6813      	ldr	r3, [r2, #0]
 80028ae:	f003 030f 	and.w	r3, r3, #15
 80028b2:	42ab      	cmp	r3, r5
 80028b4:	d00e      	beq.n	80028d4 <HAL_RCC_ClockConfig+0x54>
 80028b6:	2001      	movs	r0, #1
 80028b8:	e8bd 81f0 	ldmia.w	sp!, {r4, r5, r6, r7, r8, pc}
 80028bc:	f44f 7110 	mov.w	r1, #576	; 0x240
 80028c0:	486f      	ldr	r0, [pc, #444]	; (8002a80 <HAL_RCC_ClockConfig+0x200>)
 80028c2:	f7fe fdad 	bl	8001420 <assert_failed>
 80028c6:	e7e6      	b.n	8002896 <HAL_RCC_ClockConfig+0x16>
 80028c8:	f240 2141 	movw	r1, #577	; 0x241
 80028cc:	486c      	ldr	r0, [pc, #432]	; (8002a80 <HAL_RCC_ClockConfig+0x200>)
 80028ce:	f7fe fda7 	bl	8001420 <assert_failed>
 80028d2:	e7e2      	b.n	800289a <HAL_RCC_ClockConfig+0x1a>
 80028d4:	6823      	ldr	r3, [r4, #0]
 80028d6:	f013 0f02 	tst.w	r3, #2
 80028da:	d029      	beq.n	8002930 <HAL_RCC_ClockConfig+0xb0>
 80028dc:	f013 0f04 	tst.w	r3, #4
 80028e0:	d004      	beq.n	80028ec <HAL_RCC_ClockConfig+0x6c>
 80028e2:	4a68      	ldr	r2, [pc, #416]	; (8002a84 <HAL_RCC_ClockConfig+0x204>)
 80028e4:	6893      	ldr	r3, [r2, #8]
 80028e6:	f443 53e0 	orr.w	r3, r3, #7168	; 0x1c00
 80028ea:	6093      	str	r3, [r2, #8]
 80028ec:	6823      	ldr	r3, [r4, #0]
 80028ee:	f013 0f08 	tst.w	r3, #8
 80028f2:	d004      	beq.n	80028fe <HAL_RCC_ClockConfig+0x7e>
 80028f4:	4a63      	ldr	r2, [pc, #396]	; (8002a84 <HAL_RCC_ClockConfig+0x204>)
 80028f6:	6893      	ldr	r3, [r2, #8]
 80028f8:	f443 4360 	orr.w	r3, r3, #57344	; 0xe000
 80028fc:	6093      	str	r3, [r2, #8]
 80028fe:	68a3      	ldr	r3, [r4, #8]
 8002900:	f033 0280 	bics.w	r2, r3, #128	; 0x80
 8002904:	d00d      	beq.n	8002922 <HAL_RCC_ClockConfig+0xa2>
 8002906:	f023 0220 	bic.w	r2, r3, #32
 800290a:	2a90      	cmp	r2, #144	; 0x90
 800290c:	d009      	beq.n	8002922 <HAL_RCC_ClockConfig+0xa2>
 800290e:	f023 0240 	bic.w	r2, r3, #64	; 0x40
 8002912:	2aa0      	cmp	r2, #160	; 0xa0
 8002914:	d005      	beq.n	8002922 <HAL_RCC_ClockConfig+0xa2>
 8002916:	f023 0210 	bic.w	r2, r3, #16
 800291a:	2ac0      	cmp	r2, #192	; 0xc0
 800291c:	d001      	beq.n	8002922 <HAL_RCC_ClockConfig+0xa2>
 800291e:	2bf0      	cmp	r3, #240	; 0xf0
 8002920:	d134      	bne.n	800298c <HAL_RCC_ClockConfig+0x10c>
 8002922:	4a58      	ldr	r2, [pc, #352]	; (8002a84 <HAL_RCC_ClockConfig+0x204>)
 8002924:	6893      	ldr	r3, [r2, #8]
 8002926:	f023 03f0 	bic.w	r3, r3, #240	; 0xf0
 800292a:	68a1      	ldr	r1, [r4, #8]
 800292c:	430b      	orrs	r3, r1
 800292e:	6093      	str	r3, [r2, #8]
 8002930:	6823      	ldr	r3, [r4, #0]
 8002932:	f013 0f01 	tst.w	r3, #1
 8002936:	d043      	beq.n	80029c0 <HAL_RCC_ClockConfig+0x140>
 8002938:	6863      	ldr	r3, [r4, #4]
 800293a:	2b03      	cmp	r3, #3
 800293c:	d82c      	bhi.n	8002998 <HAL_RCC_ClockConfig+0x118>
 800293e:	6862      	ldr	r2, [r4, #4]
 8002940:	2a01      	cmp	r2, #1
 8002942:	d02f      	beq.n	80029a4 <HAL_RCC_ClockConfig+0x124>
 8002944:	1e93      	subs	r3, r2, #2
 8002946:	2b01      	cmp	r3, #1
 8002948:	d933      	bls.n	80029b2 <HAL_RCC_ClockConfig+0x132>
 800294a:	4b4e      	ldr	r3, [pc, #312]	; (8002a84 <HAL_RCC_ClockConfig+0x204>)
 800294c:	681b      	ldr	r3, [r3, #0]
 800294e:	f013 0f02 	tst.w	r3, #2
 8002952:	f000 8090 	beq.w	8002a76 <HAL_RCC_ClockConfig+0x1f6>
 8002956:	494b      	ldr	r1, [pc, #300]	; (8002a84 <HAL_RCC_ClockConfig+0x204>)
 8002958:	688b      	ldr	r3, [r1, #8]
 800295a:	f023 0303 	bic.w	r3, r3, #3
 800295e:	4313      	orrs	r3, r2
 8002960:	608b      	str	r3, [r1, #8]
 8002962:	f7ff f9a5 	bl	8001cb0 <HAL_GetTick>
 8002966:	4680      	mov	r8, r0
 8002968:	4e46      	ldr	r6, [pc, #280]	; (8002a84 <HAL_RCC_ClockConfig+0x204>)
 800296a:	f241 3788 	movw	r7, #5000	; 0x1388
 800296e:	68b3      	ldr	r3, [r6, #8]
 8002970:	f003 030c 	and.w	r3, r3, #12
 8002974:	6862      	ldr	r2, [r4, #4]
 8002976:	ebb3 0f82 	cmp.w	r3, r2, lsl #2
 800297a:	d021      	beq.n	80029c0 <HAL_RCC_ClockConfig+0x140>
 800297c:	f7ff f998 	bl	8001cb0 <HAL_GetTick>
 8002980:	eba0 0008 	sub.w	r0, r0, r8
 8002984:	42b8      	cmp	r0, r7
 8002986:	d9f2      	bls.n	800296e <HAL_RCC_ClockConfig+0xee>
 8002988:	2003      	movs	r0, #3
 800298a:	e795      	b.n	80028b8 <HAL_RCC_ClockConfig+0x38>
 800298c:	f44f 7119 	mov.w	r1, #612	; 0x264
 8002990:	483b      	ldr	r0, [pc, #236]	; (8002a80 <HAL_RCC_ClockConfig+0x200>)
 8002992:	f7fe fd45 	bl	8001420 <assert_failed>
 8002996:	e7c4      	b.n	8002922 <HAL_RCC_ClockConfig+0xa2>
 8002998:	f240 216b 	movw	r1, #619	; 0x26b
 800299c:	4838      	ldr	r0, [pc, #224]	; (8002a80 <HAL_RCC_ClockConfig+0x200>)
 800299e:	f7fe fd3f 	bl	8001420 <assert_failed>
 80029a2:	e7cc      	b.n	800293e <HAL_RCC_ClockConfig+0xbe>
 80029a4:	4b37      	ldr	r3, [pc, #220]	; (8002a84 <HAL_RCC_ClockConfig+0x204>)
 80029a6:	681b      	ldr	r3, [r3, #0]
 80029a8:	f413 3f00 	tst.w	r3, #131072	; 0x20000
 80029ac:	d1d3      	bne.n	8002956 <HAL_RCC_ClockConfig+0xd6>
 80029ae:	2001      	movs	r0, #1
 80029b0:	e782      	b.n	80028b8 <HAL_RCC_ClockConfig+0x38>
 80029b2:	4b34      	ldr	r3, [pc, #208]	; (8002a84 <HAL_RCC_ClockConfig+0x204>)
 80029b4:	681b      	ldr	r3, [r3, #0]
 80029b6:	f013 7f00 	tst.w	r3, #33554432	; 0x2000000
 80029ba:	d1cc      	bne.n	8002956 <HAL_RCC_ClockConfig+0xd6>
 80029bc:	2001      	movs	r0, #1
 80029be:	e77b      	b.n	80028b8 <HAL_RCC_ClockConfig+0x38>
 80029c0:	4b2e      	ldr	r3, [pc, #184]	; (8002a7c <HAL_RCC_ClockConfig+0x1fc>)
 80029c2:	681b      	ldr	r3, [r3, #0]
 80029c4:	f003 030f 	and.w	r3, r3, #15
 80029c8:	42ab      	cmp	r3, r5
 80029ca:	d909      	bls.n	80029e0 <HAL_RCC_ClockConfig+0x160>
 80029cc:	b2ea      	uxtb	r2, r5
 80029ce:	4b2b      	ldr	r3, [pc, #172]	; (8002a7c <HAL_RCC_ClockConfig+0x1fc>)
 80029d0:	701a      	strb	r2, [r3, #0]
 80029d2:	681b      	ldr	r3, [r3, #0]
 80029d4:	f003 030f 	and.w	r3, r3, #15
 80029d8:	42ab      	cmp	r3, r5
 80029da:	d001      	beq.n	80029e0 <HAL_RCC_ClockConfig+0x160>
 80029dc:	2001      	movs	r0, #1
 80029de:	e76b      	b.n	80028b8 <HAL_RCC_ClockConfig+0x38>
 80029e0:	6823      	ldr	r3, [r4, #0]
 80029e2:	f013 0f04 	tst.w	r3, #4
 80029e6:	d017      	beq.n	8002a18 <HAL_RCC_ClockConfig+0x198>
 80029e8:	68e3      	ldr	r3, [r4, #12]
 80029ea:	f433 5280 	bics.w	r2, r3, #4096	; 0x1000
 80029ee:	d00c      	beq.n	8002a0a <HAL_RCC_ClockConfig+0x18a>
 80029f0:	f423 6200 	bic.w	r2, r3, #2048	; 0x800
 80029f4:	f5b2 5fa0 	cmp.w	r2, #5120	; 0x1400
 80029f8:	d007      	beq.n	8002a0a <HAL_RCC_ClockConfig+0x18a>
 80029fa:	f5b3 5fc0 	cmp.w	r3, #6144	; 0x1800
 80029fe:	d004      	beq.n	8002a0a <HAL_RCC_ClockConfig+0x18a>
 8002a00:	f240 21a9 	movw	r1, #681	; 0x2a9
 8002a04:	481e      	ldr	r0, [pc, #120]	; (8002a80 <HAL_RCC_ClockConfig+0x200>)
 8002a06:	f7fe fd0b 	bl	8001420 <assert_failed>
 8002a0a:	4a1e      	ldr	r2, [pc, #120]	; (8002a84 <HAL_RCC_ClockConfig+0x204>)
 8002a0c:	6893      	ldr	r3, [r2, #8]
 8002a0e:	f423 53e0 	bic.w	r3, r3, #7168	; 0x1c00
 8002a12:	68e1      	ldr	r1, [r4, #12]
 8002a14:	430b      	orrs	r3, r1
 8002a16:	6093      	str	r3, [r2, #8]
 8002a18:	6823      	ldr	r3, [r4, #0]
 8002a1a:	f013 0f08 	tst.w	r3, #8
 8002a1e:	d018      	beq.n	8002a52 <HAL_RCC_ClockConfig+0x1d2>
 8002a20:	6923      	ldr	r3, [r4, #16]
 8002a22:	f433 5280 	bics.w	r2, r3, #4096	; 0x1000
 8002a26:	d00c      	beq.n	8002a42 <HAL_RCC_ClockConfig+0x1c2>
 8002a28:	f423 6200 	bic.w	r2, r3, #2048	; 0x800
 8002a2c:	f5b2 5fa0 	cmp.w	r2, #5120	; 0x1400
 8002a30:	d007      	beq.n	8002a42 <HAL_RCC_ClockConfig+0x1c2>
 8002a32:	f5b3 5fc0 	cmp.w	r3, #6144	; 0x1800
 8002a36:	d004      	beq.n	8002a42 <HAL_RCC_ClockConfig+0x1c2>
 8002a38:	f44f 712c 	mov.w	r1, #688	; 0x2b0
 8002a3c:	4810      	ldr	r0, [pc, #64]	; (8002a80 <HAL_RCC_ClockConfig+0x200>)
 8002a3e:	f7fe fcef 	bl	8001420 <assert_failed>
 8002a42:	4a10      	ldr	r2, [pc, #64]	; (8002a84 <HAL_RCC_ClockConfig+0x204>)
 8002a44:	6893      	ldr	r3, [r2, #8]
 8002a46:	6921      	ldr	r1, [r4, #16]
 8002a48:	f423 4360 	bic.w	r3, r3, #57344	; 0xe000
 8002a4c:	ea43 03c1 	orr.w	r3, r3, r1, lsl #3
 8002a50:	6093      	str	r3, [r2, #8]
 8002a52:	f7ff fea9 	bl	80027a8 <HAL_RCC_GetSysClockFreq>
 8002a56:	4b0b      	ldr	r3, [pc, #44]	; (8002a84 <HAL_RCC_ClockConfig+0x204>)
 8002a58:	689b      	ldr	r3, [r3, #8]
 8002a5a:	f3c3 1303 	ubfx	r3, r3, #4, #4
 8002a5e:	4a0a      	ldr	r2, [pc, #40]	; (8002a88 <HAL_RCC_ClockConfig+0x208>)
 8002a60:	5cd3      	ldrb	r3, [r2, r3]
 8002a62:	40d8      	lsrs	r0, r3
 8002a64:	4b09      	ldr	r3, [pc, #36]	; (8002a8c <HAL_RCC_ClockConfig+0x20c>)
 8002a66:	6018      	str	r0, [r3, #0]
 8002a68:	2000      	movs	r0, #0
 8002a6a:	f7ff f8d5 	bl	8001c18 <HAL_InitTick>
 8002a6e:	2000      	movs	r0, #0
 8002a70:	e722      	b.n	80028b8 <HAL_RCC_ClockConfig+0x38>
 8002a72:	2001      	movs	r0, #1
 8002a74:	4770      	bx	lr
 8002a76:	2001      	movs	r0, #1
 8002a78:	e71e      	b.n	80028b8 <HAL_RCC_ClockConfig+0x38>
 8002a7a:	bf00      	nop
 8002a7c:	40023c00 	.word	0x40023c00
 8002a80:	080046dc 	.word	0x080046dc
 8002a84:	40023800 	.word	0x40023800
 8002a88:	08004610 	.word	0x08004610
 8002a8c:	2000002c 	.word	0x2000002c

08002a90 <HAL_RCC_GetPCLK1Freq>:
 8002a90:	4b04      	ldr	r3, [pc, #16]	; (8002aa4 <HAL_RCC_GetPCLK1Freq+0x14>)
 8002a92:	689b      	ldr	r3, [r3, #8]
 8002a94:	f3c3 2382 	ubfx	r3, r3, #10, #3
 8002a98:	4a03      	ldr	r2, [pc, #12]	; (8002aa8 <HAL_RCC_GetPCLK1Freq+0x18>)
 8002a9a:	5cd3      	ldrb	r3, [r2, r3]
 8002a9c:	4a03      	ldr	r2, [pc, #12]	; (8002aac <HAL_RCC_GetPCLK1Freq+0x1c>)
 8002a9e:	6810      	ldr	r0, [r2, #0]
 8002aa0:	40d8      	lsrs	r0, r3
 8002aa2:	4770      	bx	lr
 8002aa4:	40023800 	.word	0x40023800
 8002aa8:	08004620 	.word	0x08004620
 8002aac:	2000002c 	.word	0x2000002c

08002ab0 <HAL_RCC_GetPCLK2Freq>:
 8002ab0:	4b04      	ldr	r3, [pc, #16]	; (8002ac4 <HAL_RCC_GetPCLK2Freq+0x14>)
 8002ab2:	689b      	ldr	r3, [r3, #8]
 8002ab4:	f3c3 3342 	ubfx	r3, r3, #13, #3
 8002ab8:	4a03      	ldr	r2, [pc, #12]	; (8002ac8 <HAL_RCC_GetPCLK2Freq+0x18>)
 8002aba:	5cd3      	ldrb	r3, [r2, r3]
 8002abc:	4a03      	ldr	r2, [pc, #12]	; (8002acc <HAL_RCC_GetPCLK2Freq+0x1c>)
 8002abe:	6810      	ldr	r0, [r2, #0]
 8002ac0:	40d8      	lsrs	r0, r3
 8002ac2:	4770      	bx	lr
 8002ac4:	40023800 	.word	0x40023800
 8002ac8:	08004620 	.word	0x08004620
 8002acc:	2000002c 	.word	0x2000002c

08002ad0 <SPI_WaitFlagStateUntilTimeout>:
 8002ad0:	b5f8      	push	{r3, r4, r5, r6, r7, lr}
 8002ad2:	4607      	mov	r7, r0
 8002ad4:	460e      	mov	r6, r1
 8002ad6:	4615      	mov	r5, r2
 8002ad8:	461c      	mov	r4, r3
 8002ada:	683a      	ldr	r2, [r7, #0]
 8002adc:	6893      	ldr	r3, [r2, #8]
 8002ade:	ea36 0303 	bics.w	r3, r6, r3
 8002ae2:	bf0c      	ite	eq
 8002ae4:	2301      	moveq	r3, #1
 8002ae6:	2300      	movne	r3, #0
 8002ae8:	42ab      	cmp	r3, r5
 8002aea:	d037      	beq.n	8002b5c <SPI_WaitFlagStateUntilTimeout+0x8c>
 8002aec:	f1b4 3fff 	cmp.w	r4, #4294967295
 8002af0:	d0f4      	beq.n	8002adc <SPI_WaitFlagStateUntilTimeout+0xc>
 8002af2:	f7ff f8dd 	bl	8001cb0 <HAL_GetTick>
 8002af6:	9b06      	ldr	r3, [sp, #24]
 8002af8:	1ac0      	subs	r0, r0, r3
 8002afa:	42a0      	cmp	r0, r4
 8002afc:	d201      	bcs.n	8002b02 <SPI_WaitFlagStateUntilTimeout+0x32>
 8002afe:	2c00      	cmp	r4, #0
 8002b00:	d1eb      	bne.n	8002ada <SPI_WaitFlagStateUntilTimeout+0xa>
 8002b02:	683a      	ldr	r2, [r7, #0]
 8002b04:	6853      	ldr	r3, [r2, #4]
 8002b06:	f023 03e0 	bic.w	r3, r3, #224	; 0xe0
 8002b0a:	6053      	str	r3, [r2, #4]
 8002b0c:	687b      	ldr	r3, [r7, #4]
 8002b0e:	f5b3 7f82 	cmp.w	r3, #260	; 0x104
 8002b12:	d00b      	beq.n	8002b2c <SPI_WaitFlagStateUntilTimeout+0x5c>
 8002b14:	6abb      	ldr	r3, [r7, #40]	; 0x28
 8002b16:	f5b3 5f00 	cmp.w	r3, #8192	; 0x2000
 8002b1a:	d014      	beq.n	8002b46 <SPI_WaitFlagStateUntilTimeout+0x76>
 8002b1c:	2301      	movs	r3, #1
 8002b1e:	f887 3051 	strb.w	r3, [r7, #81]	; 0x51
 8002b22:	2300      	movs	r3, #0
 8002b24:	f887 3050 	strb.w	r3, [r7, #80]	; 0x50
 8002b28:	2003      	movs	r0, #3
 8002b2a:	e018      	b.n	8002b5e <SPI_WaitFlagStateUntilTimeout+0x8e>
 8002b2c:	68bb      	ldr	r3, [r7, #8]
 8002b2e:	f5b3 4f00 	cmp.w	r3, #32768	; 0x8000
 8002b32:	d002      	beq.n	8002b3a <SPI_WaitFlagStateUntilTimeout+0x6a>
 8002b34:	f5b3 6f80 	cmp.w	r3, #1024	; 0x400
 8002b38:	d1ec      	bne.n	8002b14 <SPI_WaitFlagStateUntilTimeout+0x44>
 8002b3a:	683a      	ldr	r2, [r7, #0]
 8002b3c:	6813      	ldr	r3, [r2, #0]
 8002b3e:	f023 0340 	bic.w	r3, r3, #64	; 0x40
 8002b42:	6013      	str	r3, [r2, #0]
 8002b44:	e7e6      	b.n	8002b14 <SPI_WaitFlagStateUntilTimeout+0x44>
 8002b46:	683a      	ldr	r2, [r7, #0]
 8002b48:	6813      	ldr	r3, [r2, #0]
 8002b4a:	f423 5300 	bic.w	r3, r3, #8192	; 0x2000
 8002b4e:	6013      	str	r3, [r2, #0]
 8002b50:	683a      	ldr	r2, [r7, #0]
 8002b52:	6813      	ldr	r3, [r2, #0]
 8002b54:	f443 5300 	orr.w	r3, r3, #8192	; 0x2000
 8002b58:	6013      	str	r3, [r2, #0]
 8002b5a:	e7df      	b.n	8002b1c <SPI_WaitFlagStateUntilTimeout+0x4c>
 8002b5c:	2000      	movs	r0, #0
 8002b5e:	bdf8      	pop	{r3, r4, r5, r6, r7, pc}

08002b60 <SPI_EndRxTxTransaction>:
 8002b60:	b530      	push	{r4, r5, lr}
 8002b62:	b085      	sub	sp, #20
 8002b64:	4c16      	ldr	r4, [pc, #88]	; (8002bc0 <SPI_EndRxTxTransaction+0x60>)
 8002b66:	6824      	ldr	r4, [r4, #0]
 8002b68:	4d16      	ldr	r5, [pc, #88]	; (8002bc4 <SPI_EndRxTxTransaction+0x64>)
 8002b6a:	fba5 3404 	umull	r3, r4, r5, r4
 8002b6e:	0d64      	lsrs	r4, r4, #21
 8002b70:	f44f 757a 	mov.w	r5, #1000	; 0x3e8
 8002b74:	fb05 f404 	mul.w	r4, r5, r4
 8002b78:	9403      	str	r4, [sp, #12]
 8002b7a:	6844      	ldr	r4, [r0, #4]
 8002b7c:	f5b4 7f82 	cmp.w	r4, #260	; 0x104
 8002b80:	d00b      	beq.n	8002b9a <SPI_EndRxTxTransaction+0x3a>
 8002b82:	9b03      	ldr	r3, [sp, #12]
 8002b84:	b1c3      	cbz	r3, 8002bb8 <SPI_EndRxTxTransaction+0x58>
 8002b86:	9b03      	ldr	r3, [sp, #12]
 8002b88:	3b01      	subs	r3, #1
 8002b8a:	9303      	str	r3, [sp, #12]
 8002b8c:	6803      	ldr	r3, [r0, #0]
 8002b8e:	689b      	ldr	r3, [r3, #8]
 8002b90:	f013 0f80 	tst.w	r3, #128	; 0x80
 8002b94:	d1f5      	bne.n	8002b82 <SPI_EndRxTxTransaction+0x22>
 8002b96:	2300      	movs	r3, #0
 8002b98:	e00f      	b.n	8002bba <SPI_EndRxTxTransaction+0x5a>
 8002b9a:	460b      	mov	r3, r1
 8002b9c:	4604      	mov	r4, r0
 8002b9e:	9200      	str	r2, [sp, #0]
 8002ba0:	2200      	movs	r2, #0
 8002ba2:	2180      	movs	r1, #128	; 0x80
 8002ba4:	f7ff ff94 	bl	8002ad0 <SPI_WaitFlagStateUntilTimeout>
 8002ba8:	4603      	mov	r3, r0
 8002baa:	b130      	cbz	r0, 8002bba <SPI_EndRxTxTransaction+0x5a>
 8002bac:	6d63      	ldr	r3, [r4, #84]	; 0x54
 8002bae:	f043 0320 	orr.w	r3, r3, #32
 8002bb2:	6563      	str	r3, [r4, #84]	; 0x54
 8002bb4:	2303      	movs	r3, #3
 8002bb6:	e000      	b.n	8002bba <SPI_EndRxTxTransaction+0x5a>
 8002bb8:	2300      	movs	r3, #0
 8002bba:	4618      	mov	r0, r3
 8002bbc:	b005      	add	sp, #20
 8002bbe:	bd30      	pop	{r4, r5, pc}
 8002bc0:	2000002c 	.word	0x2000002c
 8002bc4:	165e9f81 	.word	0x165e9f81

08002bc8 <HAL_SPI_MspInit>:
 8002bc8:	4770      	bx	lr
	...

08002bcc <HAL_SPI_Init>:
 8002bcc:	2800      	cmp	r0, #0
 8002bce:	f000 80b6 	beq.w	8002d3e <HAL_SPI_Init+0x172>
 8002bd2:	b510      	push	{r4, lr}
 8002bd4:	4604      	mov	r4, r0
 8002bd6:	6803      	ldr	r3, [r0, #0]
 8002bd8:	4a5a      	ldr	r2, [pc, #360]	; (8002d44 <HAL_SPI_Init+0x178>)
 8002bda:	4293      	cmp	r3, r2
 8002bdc:	d010      	beq.n	8002c00 <HAL_SPI_Init+0x34>
 8002bde:	f5a2 4278 	sub.w	r2, r2, #63488	; 0xf800
 8002be2:	4293      	cmp	r3, r2
 8002be4:	d00c      	beq.n	8002c00 <HAL_SPI_Init+0x34>
 8002be6:	f502 6280 	add.w	r2, r2, #1024	; 0x400
 8002bea:	4293      	cmp	r3, r2
 8002bec:	d008      	beq.n	8002c00 <HAL_SPI_Init+0x34>
 8002bee:	f502 4278 	add.w	r2, r2, #63488	; 0xf800
 8002bf2:	4293      	cmp	r3, r2
 8002bf4:	d004      	beq.n	8002c00 <HAL_SPI_Init+0x34>
 8002bf6:	f240 113f 	movw	r1, #319	; 0x13f
 8002bfa:	4853      	ldr	r0, [pc, #332]	; (8002d48 <HAL_SPI_Init+0x17c>)
 8002bfc:	f7fe fc10 	bl	8001420 <assert_failed>
 8002c00:	6863      	ldr	r3, [r4, #4]
 8002c02:	b113      	cbz	r3, 8002c0a <HAL_SPI_Init+0x3e>
 8002c04:	f5b3 7f82 	cmp.w	r3, #260	; 0x104
 8002c08:	d175      	bne.n	8002cf6 <HAL_SPI_Init+0x12a>
 8002c0a:	68a3      	ldr	r3, [r4, #8]
 8002c0c:	f433 6280 	bics.w	r2, r3, #1024	; 0x400
 8002c10:	d002      	beq.n	8002c18 <HAL_SPI_Init+0x4c>
 8002c12:	f5b3 4f00 	cmp.w	r3, #32768	; 0x8000
 8002c16:	d174      	bne.n	8002d02 <HAL_SPI_Init+0x136>
 8002c18:	68e3      	ldr	r3, [r4, #12]
 8002c1a:	f433 6300 	bics.w	r3, r3, #2048	; 0x800
 8002c1e:	d176      	bne.n	8002d0e <HAL_SPI_Init+0x142>
 8002c20:	69a3      	ldr	r3, [r4, #24]
 8002c22:	f433 7200 	bics.w	r2, r3, #512	; 0x200
 8002c26:	d002      	beq.n	8002c2e <HAL_SPI_Init+0x62>
 8002c28:	f5b3 2f80 	cmp.w	r3, #262144	; 0x40000
 8002c2c:	d175      	bne.n	8002d1a <HAL_SPI_Init+0x14e>
 8002c2e:	69e3      	ldr	r3, [r4, #28]
 8002c30:	f033 0308 	bics.w	r3, r3, #8
 8002c34:	d00a      	beq.n	8002c4c <HAL_SPI_Init+0x80>
 8002c36:	2b10      	cmp	r3, #16
 8002c38:	d008      	beq.n	8002c4c <HAL_SPI_Init+0x80>
 8002c3a:	2b20      	cmp	r3, #32
 8002c3c:	d006      	beq.n	8002c4c <HAL_SPI_Init+0x80>
 8002c3e:	2b30      	cmp	r3, #48	; 0x30
 8002c40:	d004      	beq.n	8002c4c <HAL_SPI_Init+0x80>
 8002c42:	f44f 71a2 	mov.w	r1, #324	; 0x144
 8002c46:	4840      	ldr	r0, [pc, #256]	; (8002d48 <HAL_SPI_Init+0x17c>)
 8002c48:	f7fe fbea 	bl	8001420 <assert_failed>
 8002c4c:	6a23      	ldr	r3, [r4, #32]
 8002c4e:	f033 0380 	bics.w	r3, r3, #128	; 0x80
 8002c52:	d004      	beq.n	8002c5e <HAL_SPI_Init+0x92>
 8002c54:	f240 1145 	movw	r1, #325	; 0x145
 8002c58:	483b      	ldr	r0, [pc, #236]	; (8002d48 <HAL_SPI_Init+0x17c>)
 8002c5a:	f7fe fbe1 	bl	8001420 <assert_failed>
 8002c5e:	6a63      	ldr	r3, [r4, #36]	; 0x24
 8002c60:	b143      	cbz	r3, 8002c74 <HAL_SPI_Init+0xa8>
 8002c62:	2b10      	cmp	r3, #16
 8002c64:	d012      	beq.n	8002c8c <HAL_SPI_Init+0xc0>
 8002c66:	f44f 71a3 	mov.w	r1, #326	; 0x146
 8002c6a:	4837      	ldr	r0, [pc, #220]	; (8002d48 <HAL_SPI_Init+0x17c>)
 8002c6c:	f7fe fbd8 	bl	8001420 <assert_failed>
 8002c70:	6a63      	ldr	r3, [r4, #36]	; 0x24
 8002c72:	b95b      	cbnz	r3, 8002c8c <HAL_SPI_Init+0xc0>
 8002c74:	6923      	ldr	r3, [r4, #16]
 8002c76:	f033 0302 	bics.w	r3, r3, #2
 8002c7a:	d004      	beq.n	8002c86 <HAL_SPI_Init+0xba>
 8002c7c:	f240 1149 	movw	r1, #329	; 0x149
 8002c80:	4831      	ldr	r0, [pc, #196]	; (8002d48 <HAL_SPI_Init+0x17c>)
 8002c82:	f7fe fbcd 	bl	8001420 <assert_failed>
 8002c86:	6963      	ldr	r3, [r4, #20]
 8002c88:	2b01      	cmp	r3, #1
 8002c8a:	d84c      	bhi.n	8002d26 <HAL_SPI_Init+0x15a>
 8002c8c:	2300      	movs	r3, #0
 8002c8e:	62a3      	str	r3, [r4, #40]	; 0x28
 8002c90:	f894 3051 	ldrb.w	r3, [r4, #81]	; 0x51
 8002c94:	2b00      	cmp	r3, #0
 8002c96:	d04c      	beq.n	8002d32 <HAL_SPI_Init+0x166>
 8002c98:	2302      	movs	r3, #2
 8002c9a:	f884 3051 	strb.w	r3, [r4, #81]	; 0x51
 8002c9e:	6822      	ldr	r2, [r4, #0]
 8002ca0:	6813      	ldr	r3, [r2, #0]
 8002ca2:	f023 0340 	bic.w	r3, r3, #64	; 0x40
 8002ca6:	6013      	str	r3, [r2, #0]
 8002ca8:	6822      	ldr	r2, [r4, #0]
 8002caa:	6863      	ldr	r3, [r4, #4]
 8002cac:	68a1      	ldr	r1, [r4, #8]
 8002cae:	430b      	orrs	r3, r1
 8002cb0:	68e1      	ldr	r1, [r4, #12]
 8002cb2:	430b      	orrs	r3, r1
 8002cb4:	6921      	ldr	r1, [r4, #16]
 8002cb6:	430b      	orrs	r3, r1
 8002cb8:	6961      	ldr	r1, [r4, #20]
 8002cba:	430b      	orrs	r3, r1
 8002cbc:	69e1      	ldr	r1, [r4, #28]
 8002cbe:	430b      	orrs	r3, r1
 8002cc0:	6a21      	ldr	r1, [r4, #32]
 8002cc2:	430b      	orrs	r3, r1
 8002cc4:	6aa1      	ldr	r1, [r4, #40]	; 0x28
 8002cc6:	430b      	orrs	r3, r1
 8002cc8:	69a1      	ldr	r1, [r4, #24]
 8002cca:	f401 7100 	and.w	r1, r1, #512	; 0x200
 8002cce:	430b      	orrs	r3, r1
 8002cd0:	6013      	str	r3, [r2, #0]
 8002cd2:	6822      	ldr	r2, [r4, #0]
 8002cd4:	8b63      	ldrh	r3, [r4, #26]
 8002cd6:	f003 0304 	and.w	r3, r3, #4
 8002cda:	6a61      	ldr	r1, [r4, #36]	; 0x24
 8002cdc:	430b      	orrs	r3, r1
 8002cde:	6053      	str	r3, [r2, #4]
 8002ce0:	6822      	ldr	r2, [r4, #0]
 8002ce2:	69d3      	ldr	r3, [r2, #28]
 8002ce4:	f423 6300 	bic.w	r3, r3, #2048	; 0x800
 8002ce8:	61d3      	str	r3, [r2, #28]
 8002cea:	2000      	movs	r0, #0
 8002cec:	6560      	str	r0, [r4, #84]	; 0x54
 8002cee:	2301      	movs	r3, #1
 8002cf0:	f884 3051 	strb.w	r3, [r4, #81]	; 0x51
 8002cf4:	bd10      	pop	{r4, pc}
 8002cf6:	f44f 71a0 	mov.w	r1, #320	; 0x140
 8002cfa:	4813      	ldr	r0, [pc, #76]	; (8002d48 <HAL_SPI_Init+0x17c>)
 8002cfc:	f7fe fb90 	bl	8001420 <assert_failed>
 8002d00:	e783      	b.n	8002c0a <HAL_SPI_Init+0x3e>
 8002d02:	f240 1141 	movw	r1, #321	; 0x141
 8002d06:	4810      	ldr	r0, [pc, #64]	; (8002d48 <HAL_SPI_Init+0x17c>)
 8002d08:	f7fe fb8a 	bl	8001420 <assert_failed>
 8002d0c:	e784      	b.n	8002c18 <HAL_SPI_Init+0x4c>
 8002d0e:	f44f 71a1 	mov.w	r1, #322	; 0x142
 8002d12:	480d      	ldr	r0, [pc, #52]	; (8002d48 <HAL_SPI_Init+0x17c>)
 8002d14:	f7fe fb84 	bl	8001420 <assert_failed>
 8002d18:	e782      	b.n	8002c20 <HAL_SPI_Init+0x54>
 8002d1a:	f240 1143 	movw	r1, #323	; 0x143
 8002d1e:	480a      	ldr	r0, [pc, #40]	; (8002d48 <HAL_SPI_Init+0x17c>)
 8002d20:	f7fe fb7e 	bl	8001420 <assert_failed>
 8002d24:	e783      	b.n	8002c2e <HAL_SPI_Init+0x62>
 8002d26:	f44f 71a5 	mov.w	r1, #330	; 0x14a
 8002d2a:	4807      	ldr	r0, [pc, #28]	; (8002d48 <HAL_SPI_Init+0x17c>)
 8002d2c:	f7fe fb78 	bl	8001420 <assert_failed>
 8002d30:	e7ac      	b.n	8002c8c <HAL_SPI_Init+0xc0>
 8002d32:	f884 3050 	strb.w	r3, [r4, #80]	; 0x50
 8002d36:	4620      	mov	r0, r4
 8002d38:	f7ff ff46 	bl	8002bc8 <HAL_SPI_MspInit>
 8002d3c:	e7ac      	b.n	8002c98 <HAL_SPI_Init+0xcc>
 8002d3e:	2001      	movs	r0, #1
 8002d40:	4770      	bx	lr
 8002d42:	bf00      	nop
 8002d44:	40013000 	.word	0x40013000
 8002d48:	08004714 	.word	0x08004714

08002d4c <HAL_SPI_TransmitReceive>:
 8002d4c:	e92d 43f0 	stmdb	sp!, {r4, r5, r6, r7, r8, r9, lr}
 8002d50:	b083      	sub	sp, #12
 8002d52:	4604      	mov	r4, r0
 8002d54:	460f      	mov	r7, r1
 8002d56:	4690      	mov	r8, r2
 8002d58:	461e      	mov	r6, r3
 8002d5a:	9d0a      	ldr	r5, [sp, #40]	; 0x28
 8002d5c:	6883      	ldr	r3, [r0, #8]
 8002d5e:	b9f3      	cbnz	r3, 8002d9e <HAL_SPI_TransmitReceive+0x52>
 8002d60:	f894 3050 	ldrb.w	r3, [r4, #80]	; 0x50
 8002d64:	2b01      	cmp	r3, #1
 8002d66:	f000 8114 	beq.w	8002f92 <HAL_SPI_TransmitReceive+0x246>
 8002d6a:	2301      	movs	r3, #1
 8002d6c:	f884 3050 	strb.w	r3, [r4, #80]	; 0x50
 8002d70:	f7fe ff9e 	bl	8001cb0 <HAL_GetTick>
 8002d74:	4681      	mov	r9, r0
 8002d76:	f894 3051 	ldrb.w	r3, [r4, #81]	; 0x51
 8002d7a:	b2db      	uxtb	r3, r3
 8002d7c:	2b01      	cmp	r3, #1
 8002d7e:	d01c      	beq.n	8002dba <HAL_SPI_TransmitReceive+0x6e>
 8002d80:	6862      	ldr	r2, [r4, #4]
 8002d82:	f5b2 7f82 	cmp.w	r2, #260	; 0x104
 8002d86:	d010      	beq.n	8002daa <HAL_SPI_TransmitReceive+0x5e>
 8002d88:	2302      	movs	r3, #2
 8002d8a:	2201      	movs	r2, #1
 8002d8c:	f884 2051 	strb.w	r2, [r4, #81]	; 0x51
 8002d90:	2200      	movs	r2, #0
 8002d92:	f884 2050 	strb.w	r2, [r4, #80]	; 0x50
 8002d96:	4618      	mov	r0, r3
 8002d98:	b003      	add	sp, #12
 8002d9a:	e8bd 83f0 	ldmia.w	sp!, {r4, r5, r6, r7, r8, r9, pc}
 8002d9e:	f240 4156 	movw	r1, #1110	; 0x456
 8002da2:	487d      	ldr	r0, [pc, #500]	; (8002f98 <HAL_SPI_TransmitReceive+0x24c>)
 8002da4:	f7fe fb3c 	bl	8001420 <assert_failed>
 8002da8:	e7da      	b.n	8002d60 <HAL_SPI_TransmitReceive+0x14>
 8002daa:	68a2      	ldr	r2, [r4, #8]
 8002dac:	2a00      	cmp	r2, #0
 8002dae:	f040 80e4 	bne.w	8002f7a <HAL_SPI_TransmitReceive+0x22e>
 8002db2:	2b04      	cmp	r3, #4
 8002db4:	d001      	beq.n	8002dba <HAL_SPI_TransmitReceive+0x6e>
 8002db6:	2302      	movs	r3, #2
 8002db8:	e7e7      	b.n	8002d8a <HAL_SPI_TransmitReceive+0x3e>
 8002dba:	2f00      	cmp	r7, #0
 8002dbc:	f000 80df 	beq.w	8002f7e <HAL_SPI_TransmitReceive+0x232>
 8002dc0:	f1b8 0f00 	cmp.w	r8, #0
 8002dc4:	f000 80dd 	beq.w	8002f82 <HAL_SPI_TransmitReceive+0x236>
 8002dc8:	2e00      	cmp	r6, #0
 8002dca:	f000 80dc 	beq.w	8002f86 <HAL_SPI_TransmitReceive+0x23a>
 8002dce:	f894 3051 	ldrb.w	r3, [r4, #81]	; 0x51
 8002dd2:	b2db      	uxtb	r3, r3
 8002dd4:	2b04      	cmp	r3, #4
 8002dd6:	bf1c      	itt	ne
 8002dd8:	2305      	movne	r3, #5
 8002dda:	f884 3051 	strbne.w	r3, [r4, #81]	; 0x51
 8002dde:	2300      	movs	r3, #0
 8002de0:	6563      	str	r3, [r4, #84]	; 0x54
 8002de2:	f8c4 8038 	str.w	r8, [r4, #56]	; 0x38
 8002de6:	87e6      	strh	r6, [r4, #62]	; 0x3e
 8002de8:	87a6      	strh	r6, [r4, #60]	; 0x3c
 8002dea:	6327      	str	r7, [r4, #48]	; 0x30
 8002dec:	86e6      	strh	r6, [r4, #54]	; 0x36
 8002dee:	86a6      	strh	r6, [r4, #52]	; 0x34
 8002df0:	6423      	str	r3, [r4, #64]	; 0x40
 8002df2:	6463      	str	r3, [r4, #68]	; 0x44
 8002df4:	6823      	ldr	r3, [r4, #0]
 8002df6:	681a      	ldr	r2, [r3, #0]
 8002df8:	f012 0f40 	tst.w	r2, #64	; 0x40
 8002dfc:	d103      	bne.n	8002e06 <HAL_SPI_TransmitReceive+0xba>
 8002dfe:	681a      	ldr	r2, [r3, #0]
 8002e00:	f042 0240 	orr.w	r2, r2, #64	; 0x40
 8002e04:	601a      	str	r2, [r3, #0]
 8002e06:	68e3      	ldr	r3, [r4, #12]
 8002e08:	f5b3 6f00 	cmp.w	r3, #2048	; 0x800
 8002e0c:	d013      	beq.n	8002e36 <HAL_SPI_TransmitReceive+0xea>
 8002e0e:	6863      	ldr	r3, [r4, #4]
 8002e10:	b10b      	cbz	r3, 8002e16 <HAL_SPI_TransmitReceive+0xca>
 8002e12:	2e01      	cmp	r6, #1
 8002e14:	d10a      	bne.n	8002e2c <HAL_SPI_TransmitReceive+0xe0>
 8002e16:	6823      	ldr	r3, [r4, #0]
 8002e18:	6b22      	ldr	r2, [r4, #48]	; 0x30
 8002e1a:	7812      	ldrb	r2, [r2, #0]
 8002e1c:	731a      	strb	r2, [r3, #12]
 8002e1e:	6b23      	ldr	r3, [r4, #48]	; 0x30
 8002e20:	3301      	adds	r3, #1
 8002e22:	6323      	str	r3, [r4, #48]	; 0x30
 8002e24:	8ee3      	ldrh	r3, [r4, #54]	; 0x36
 8002e26:	3b01      	subs	r3, #1
 8002e28:	b29b      	uxth	r3, r3
 8002e2a:	86e3      	strh	r3, [r4, #54]	; 0x36
 8002e2c:	2601      	movs	r6, #1
 8002e2e:	f04f 0800 	mov.w	r8, #0
 8002e32:	4637      	mov	r7, r6
 8002e34:	e069      	b.n	8002f0a <HAL_SPI_TransmitReceive+0x1be>
 8002e36:	6863      	ldr	r3, [r4, #4]
 8002e38:	b10b      	cbz	r3, 8002e3e <HAL_SPI_TransmitReceive+0xf2>
 8002e3a:	2e01      	cmp	r6, #1
 8002e3c:	d10a      	bne.n	8002e54 <HAL_SPI_TransmitReceive+0x108>
 8002e3e:	6823      	ldr	r3, [r4, #0]
 8002e40:	6b22      	ldr	r2, [r4, #48]	; 0x30
 8002e42:	8812      	ldrh	r2, [r2, #0]
 8002e44:	60da      	str	r2, [r3, #12]
 8002e46:	6b23      	ldr	r3, [r4, #48]	; 0x30
 8002e48:	3302      	adds	r3, #2
 8002e4a:	6323      	str	r3, [r4, #48]	; 0x30
 8002e4c:	8ee3      	ldrh	r3, [r4, #54]	; 0x36
 8002e4e:	3b01      	subs	r3, #1
 8002e50:	b29b      	uxth	r3, r3
 8002e52:	86e3      	strh	r3, [r4, #54]	; 0x36
 8002e54:	2601      	movs	r6, #1
 8002e56:	f04f 0800 	mov.w	r8, #0
 8002e5a:	4637      	mov	r7, r6
 8002e5c:	e01b      	b.n	8002e96 <HAL_SPI_TransmitReceive+0x14a>
 8002e5e:	6823      	ldr	r3, [r4, #0]
 8002e60:	689a      	ldr	r2, [r3, #8]
 8002e62:	f012 0f01 	tst.w	r2, #1
 8002e66:	d00d      	beq.n	8002e84 <HAL_SPI_TransmitReceive+0x138>
 8002e68:	8fe2      	ldrh	r2, [r4, #62]	; 0x3e
 8002e6a:	b292      	uxth	r2, r2
 8002e6c:	b152      	cbz	r2, 8002e84 <HAL_SPI_TransmitReceive+0x138>
 8002e6e:	68da      	ldr	r2, [r3, #12]
 8002e70:	6ba3      	ldr	r3, [r4, #56]	; 0x38
 8002e72:	801a      	strh	r2, [r3, #0]
 8002e74:	6ba3      	ldr	r3, [r4, #56]	; 0x38
 8002e76:	3302      	adds	r3, #2
 8002e78:	63a3      	str	r3, [r4, #56]	; 0x38
 8002e7a:	8fe3      	ldrh	r3, [r4, #62]	; 0x3e
 8002e7c:	3b01      	subs	r3, #1
 8002e7e:	b29b      	uxth	r3, r3
 8002e80:	87e3      	strh	r3, [r4, #62]	; 0x3e
 8002e82:	463e      	mov	r6, r7
 8002e84:	f7fe ff14 	bl	8001cb0 <HAL_GetTick>
 8002e88:	eba0 0009 	sub.w	r0, r0, r9
 8002e8c:	42a8      	cmp	r0, r5
 8002e8e:	d302      	bcc.n	8002e96 <HAL_SPI_TransmitReceive+0x14a>
 8002e90:	f1b5 3fff 	cmp.w	r5, #4294967295
 8002e94:	d179      	bne.n	8002f8a <HAL_SPI_TransmitReceive+0x23e>
 8002e96:	8ee3      	ldrh	r3, [r4, #54]	; 0x36
 8002e98:	b29b      	uxth	r3, r3
 8002e9a:	b91b      	cbnz	r3, 8002ea4 <HAL_SPI_TransmitReceive+0x158>
 8002e9c:	8fe3      	ldrh	r3, [r4, #62]	; 0x3e
 8002e9e:	b29b      	uxth	r3, r3
 8002ea0:	2b00      	cmp	r3, #0
 8002ea2:	d053      	beq.n	8002f4c <HAL_SPI_TransmitReceive+0x200>
 8002ea4:	6823      	ldr	r3, [r4, #0]
 8002ea6:	689a      	ldr	r2, [r3, #8]
 8002ea8:	f012 0f02 	tst.w	r2, #2
 8002eac:	d0d7      	beq.n	8002e5e <HAL_SPI_TransmitReceive+0x112>
 8002eae:	8ee2      	ldrh	r2, [r4, #54]	; 0x36
 8002eb0:	b292      	uxth	r2, r2
 8002eb2:	2a00      	cmp	r2, #0
 8002eb4:	d0d3      	beq.n	8002e5e <HAL_SPI_TransmitReceive+0x112>
 8002eb6:	2e00      	cmp	r6, #0
 8002eb8:	d0d1      	beq.n	8002e5e <HAL_SPI_TransmitReceive+0x112>
 8002eba:	6b22      	ldr	r2, [r4, #48]	; 0x30
 8002ebc:	8812      	ldrh	r2, [r2, #0]
 8002ebe:	60da      	str	r2, [r3, #12]
 8002ec0:	6b23      	ldr	r3, [r4, #48]	; 0x30
 8002ec2:	3302      	adds	r3, #2
 8002ec4:	6323      	str	r3, [r4, #48]	; 0x30
 8002ec6:	8ee3      	ldrh	r3, [r4, #54]	; 0x36
 8002ec8:	3b01      	subs	r3, #1
 8002eca:	b29b      	uxth	r3, r3
 8002ecc:	86e3      	strh	r3, [r4, #54]	; 0x36
 8002ece:	4646      	mov	r6, r8
 8002ed0:	e7c5      	b.n	8002e5e <HAL_SPI_TransmitReceive+0x112>
 8002ed2:	6823      	ldr	r3, [r4, #0]
 8002ed4:	689a      	ldr	r2, [r3, #8]
 8002ed6:	f012 0f01 	tst.w	r2, #1
 8002eda:	d00d      	beq.n	8002ef8 <HAL_SPI_TransmitReceive+0x1ac>
 8002edc:	8fe2      	ldrh	r2, [r4, #62]	; 0x3e
 8002ede:	b292      	uxth	r2, r2
 8002ee0:	b152      	cbz	r2, 8002ef8 <HAL_SPI_TransmitReceive+0x1ac>
 8002ee2:	68da      	ldr	r2, [r3, #12]
 8002ee4:	6ba3      	ldr	r3, [r4, #56]	; 0x38
 8002ee6:	701a      	strb	r2, [r3, #0]
 8002ee8:	6ba3      	ldr	r3, [r4, #56]	; 0x38
 8002eea:	3301      	adds	r3, #1
 8002eec:	63a3      	str	r3, [r4, #56]	; 0x38
 8002eee:	8fe3      	ldrh	r3, [r4, #62]	; 0x3e
 8002ef0:	3b01      	subs	r3, #1
 8002ef2:	b29b      	uxth	r3, r3
 8002ef4:	87e3      	strh	r3, [r4, #62]	; 0x3e
 8002ef6:	463e      	mov	r6, r7
 8002ef8:	f7fe feda 	bl	8001cb0 <HAL_GetTick>
 8002efc:	eba0 0009 	sub.w	r0, r0, r9
 8002f00:	42a8      	cmp	r0, r5
 8002f02:	d31f      	bcc.n	8002f44 <HAL_SPI_TransmitReceive+0x1f8>
 8002f04:	f1b5 3fff 	cmp.w	r5, #4294967295
 8002f08:	d141      	bne.n	8002f8e <HAL_SPI_TransmitReceive+0x242>
 8002f0a:	8ee3      	ldrh	r3, [r4, #54]	; 0x36
 8002f0c:	b29b      	uxth	r3, r3
 8002f0e:	b913      	cbnz	r3, 8002f16 <HAL_SPI_TransmitReceive+0x1ca>
 8002f10:	8fe3      	ldrh	r3, [r4, #62]	; 0x3e
 8002f12:	b29b      	uxth	r3, r3
 8002f14:	b1d3      	cbz	r3, 8002f4c <HAL_SPI_TransmitReceive+0x200>
 8002f16:	6823      	ldr	r3, [r4, #0]
 8002f18:	689a      	ldr	r2, [r3, #8]
 8002f1a:	f012 0f02 	tst.w	r2, #2
 8002f1e:	d0d8      	beq.n	8002ed2 <HAL_SPI_TransmitReceive+0x186>
 8002f20:	8ee2      	ldrh	r2, [r4, #54]	; 0x36
 8002f22:	b292      	uxth	r2, r2
 8002f24:	2a00      	cmp	r2, #0
 8002f26:	d0d4      	beq.n	8002ed2 <HAL_SPI_TransmitReceive+0x186>
 8002f28:	2e01      	cmp	r6, #1
 8002f2a:	d1d2      	bne.n	8002ed2 <HAL_SPI_TransmitReceive+0x186>
 8002f2c:	6b22      	ldr	r2, [r4, #48]	; 0x30
 8002f2e:	7812      	ldrb	r2, [r2, #0]
 8002f30:	731a      	strb	r2, [r3, #12]
 8002f32:	6b23      	ldr	r3, [r4, #48]	; 0x30
 8002f34:	3301      	adds	r3, #1
 8002f36:	6323      	str	r3, [r4, #48]	; 0x30
 8002f38:	8ee3      	ldrh	r3, [r4, #54]	; 0x36
 8002f3a:	3b01      	subs	r3, #1
 8002f3c:	b29b      	uxth	r3, r3
 8002f3e:	86e3      	strh	r3, [r4, #54]	; 0x36
 8002f40:	4646      	mov	r6, r8
 8002f42:	e7c6      	b.n	8002ed2 <HAL_SPI_TransmitReceive+0x186>
 8002f44:	2d00      	cmp	r5, #0
 8002f46:	d1e0      	bne.n	8002f0a <HAL_SPI_TransmitReceive+0x1be>
 8002f48:	2303      	movs	r3, #3
 8002f4a:	e71e      	b.n	8002d8a <HAL_SPI_TransmitReceive+0x3e>
 8002f4c:	464a      	mov	r2, r9
 8002f4e:	4629      	mov	r1, r5
 8002f50:	4620      	mov	r0, r4
 8002f52:	f7ff fe05 	bl	8002b60 <SPI_EndRxTxTransaction>
 8002f56:	4603      	mov	r3, r0
 8002f58:	b118      	cbz	r0, 8002f62 <HAL_SPI_TransmitReceive+0x216>
 8002f5a:	2320      	movs	r3, #32
 8002f5c:	6563      	str	r3, [r4, #84]	; 0x54
 8002f5e:	2301      	movs	r3, #1
 8002f60:	e713      	b.n	8002d8a <HAL_SPI_TransmitReceive+0x3e>
 8002f62:	68a2      	ldr	r2, [r4, #8]
 8002f64:	2a00      	cmp	r2, #0
 8002f66:	f47f af10 	bne.w	8002d8a <HAL_SPI_TransmitReceive+0x3e>
 8002f6a:	9201      	str	r2, [sp, #4]
 8002f6c:	6822      	ldr	r2, [r4, #0]
 8002f6e:	68d1      	ldr	r1, [r2, #12]
 8002f70:	9101      	str	r1, [sp, #4]
 8002f72:	6892      	ldr	r2, [r2, #8]
 8002f74:	9201      	str	r2, [sp, #4]
 8002f76:	9a01      	ldr	r2, [sp, #4]
 8002f78:	e707      	b.n	8002d8a <HAL_SPI_TransmitReceive+0x3e>
 8002f7a:	2302      	movs	r3, #2
 8002f7c:	e705      	b.n	8002d8a <HAL_SPI_TransmitReceive+0x3e>
 8002f7e:	2301      	movs	r3, #1
 8002f80:	e703      	b.n	8002d8a <HAL_SPI_TransmitReceive+0x3e>
 8002f82:	2301      	movs	r3, #1
 8002f84:	e701      	b.n	8002d8a <HAL_SPI_TransmitReceive+0x3e>
 8002f86:	2301      	movs	r3, #1
 8002f88:	e6ff      	b.n	8002d8a <HAL_SPI_TransmitReceive+0x3e>
 8002f8a:	2303      	movs	r3, #3
 8002f8c:	e6fd      	b.n	8002d8a <HAL_SPI_TransmitReceive+0x3e>
 8002f8e:	2303      	movs	r3, #3
 8002f90:	e6fb      	b.n	8002d8a <HAL_SPI_TransmitReceive+0x3e>
 8002f92:	2302      	movs	r3, #2
 8002f94:	e6ff      	b.n	8002d96 <HAL_SPI_TransmitReceive+0x4a>
 8002f96:	bf00      	nop
 8002f98:	08004714 	.word	0x08004714

08002f9c <HAL_SPI_GetState>:
 8002f9c:	f890 0051 	ldrb.w	r0, [r0, #81]	; 0x51
 8002fa0:	4770      	bx	lr

08002fa2 <UART_EndRxTransfer>:
 8002fa2:	6802      	ldr	r2, [r0, #0]
 8002fa4:	68d3      	ldr	r3, [r2, #12]
 8002fa6:	f423 7390 	bic.w	r3, r3, #288	; 0x120
 8002faa:	60d3      	str	r3, [r2, #12]
 8002fac:	6802      	ldr	r2, [r0, #0]
 8002fae:	6953      	ldr	r3, [r2, #20]
 8002fb0:	f023 0301 	bic.w	r3, r3, #1
 8002fb4:	6153      	str	r3, [r2, #20]
 8002fb6:	2320      	movs	r3, #32
 8002fb8:	f880 303a 	strb.w	r3, [r0, #58]	; 0x3a
 8002fbc:	4770      	bx	lr
	...

08002fc0 <UART_SetConfig>:
 8002fc0:	e92d 43f8 	stmdb	sp!, {r3, r4, r5, r6, r7, r8, r9, lr}
 8002fc4:	4604      	mov	r4, r0
 8002fc6:	6842      	ldr	r2, [r0, #4]
 8002fc8:	4bae      	ldr	r3, [pc, #696]	; (8003284 <UART_SetConfig+0x2c4>)
 8002fca:	429a      	cmp	r2, r3
 8002fcc:	f200 809c 	bhi.w	8003108 <UART_SetConfig+0x148>
 8002fd0:	68e3      	ldr	r3, [r4, #12]
 8002fd2:	f433 5300 	bics.w	r3, r3, #8192	; 0x2000
 8002fd6:	d004      	beq.n	8002fe2 <UART_SetConfig+0x22>
 8002fd8:	f640 31e6 	movw	r1, #3046	; 0xbe6
 8002fdc:	48aa      	ldr	r0, [pc, #680]	; (8003288 <UART_SetConfig+0x2c8>)
 8002fde:	f7fe fa1f 	bl	8001420 <assert_failed>
 8002fe2:	6923      	ldr	r3, [r4, #16]
 8002fe4:	f433 6280 	bics.w	r2, r3, #1024	; 0x400
 8002fe8:	d003      	beq.n	8002ff2 <UART_SetConfig+0x32>
 8002fea:	f5b3 6fc0 	cmp.w	r3, #1536	; 0x600
 8002fee:	f040 8091 	bne.w	8003114 <UART_SetConfig+0x154>
 8002ff2:	6963      	ldr	r3, [r4, #20]
 8002ff4:	f64f 72f3 	movw	r2, #65523	; 0xfff3
 8002ff8:	4213      	tst	r3, r2
 8002ffa:	d100      	bne.n	8002ffe <UART_SetConfig+0x3e>
 8002ffc:	b923      	cbnz	r3, 8003008 <UART_SetConfig+0x48>
 8002ffe:	f640 31e8 	movw	r1, #3048	; 0xbe8
 8003002:	48a1      	ldr	r0, [pc, #644]	; (8003288 <UART_SetConfig+0x2c8>)
 8003004:	f7fe fa0c 	bl	8001420 <assert_failed>
 8003008:	6822      	ldr	r2, [r4, #0]
 800300a:	6913      	ldr	r3, [r2, #16]
 800300c:	f423 5340 	bic.w	r3, r3, #12288	; 0x3000
 8003010:	68e1      	ldr	r1, [r4, #12]
 8003012:	430b      	orrs	r3, r1
 8003014:	6113      	str	r3, [r2, #16]
 8003016:	6821      	ldr	r1, [r4, #0]
 8003018:	68ca      	ldr	r2, [r1, #12]
 800301a:	68a3      	ldr	r3, [r4, #8]
 800301c:	6920      	ldr	r0, [r4, #16]
 800301e:	4303      	orrs	r3, r0
 8003020:	6960      	ldr	r0, [r4, #20]
 8003022:	4303      	orrs	r3, r0
 8003024:	69e0      	ldr	r0, [r4, #28]
 8003026:	4303      	orrs	r3, r0
 8003028:	f422 4216 	bic.w	r2, r2, #38400	; 0x9600
 800302c:	f022 020c 	bic.w	r2, r2, #12
 8003030:	4313      	orrs	r3, r2
 8003032:	60cb      	str	r3, [r1, #12]
 8003034:	6822      	ldr	r2, [r4, #0]
 8003036:	6953      	ldr	r3, [r2, #20]
 8003038:	f423 7340 	bic.w	r3, r3, #768	; 0x300
 800303c:	69a1      	ldr	r1, [r4, #24]
 800303e:	430b      	orrs	r3, r1
 8003040:	6153      	str	r3, [r2, #20]
 8003042:	69e3      	ldr	r3, [r4, #28]
 8003044:	f5b3 4f00 	cmp.w	r3, #32768	; 0x8000
 8003048:	d06a      	beq.n	8003120 <UART_SetConfig+0x160>
 800304a:	6823      	ldr	r3, [r4, #0]
 800304c:	4a8f      	ldr	r2, [pc, #572]	; (800328c <UART_SetConfig+0x2cc>)
 800304e:	4293      	cmp	r3, r2
 8003050:	f000 8120 	beq.w	8003294 <UART_SetConfig+0x2d4>
 8003054:	f502 6280 	add.w	r2, r2, #1024	; 0x400
 8003058:	4293      	cmp	r3, r2
 800305a:	f000 811b 	beq.w	8003294 <UART_SetConfig+0x2d4>
 800305e:	f7ff fd17 	bl	8002a90 <HAL_RCC_GetPCLK1Freq>
 8003062:	eb00 0080 	add.w	r0, r0, r0, lsl #2
 8003066:	eb00 0080 	add.w	r0, r0, r0, lsl #2
 800306a:	6863      	ldr	r3, [r4, #4]
 800306c:	009b      	lsls	r3, r3, #2
 800306e:	fbb0 f3f3 	udiv	r3, r0, r3
 8003072:	4f87      	ldr	r7, [pc, #540]	; (8003290 <UART_SetConfig+0x2d0>)
 8003074:	fba7 2303 	umull	r2, r3, r7, r3
 8003078:	095b      	lsrs	r3, r3, #5
 800307a:	011d      	lsls	r5, r3, #4
 800307c:	f7ff fd08 	bl	8002a90 <HAL_RCC_GetPCLK1Freq>
 8003080:	eb00 0080 	add.w	r0, r0, r0, lsl #2
 8003084:	eb00 0080 	add.w	r0, r0, r0, lsl #2
 8003088:	6863      	ldr	r3, [r4, #4]
 800308a:	009b      	lsls	r3, r3, #2
 800308c:	fbb0 f6f3 	udiv	r6, r0, r3
 8003090:	f7ff fcfe 	bl	8002a90 <HAL_RCC_GetPCLK1Freq>
 8003094:	eb00 0080 	add.w	r0, r0, r0, lsl #2
 8003098:	eb00 0080 	add.w	r0, r0, r0, lsl #2
 800309c:	6863      	ldr	r3, [r4, #4]
 800309e:	009b      	lsls	r3, r3, #2
 80030a0:	fbb0 f3f3 	udiv	r3, r0, r3
 80030a4:	fba7 2303 	umull	r2, r3, r7, r3
 80030a8:	095b      	lsrs	r3, r3, #5
 80030aa:	f04f 0964 	mov.w	r9, #100	; 0x64
 80030ae:	fb09 6313 	mls	r3, r9, r3, r6
 80030b2:	011b      	lsls	r3, r3, #4
 80030b4:	3332      	adds	r3, #50	; 0x32
 80030b6:	fba7 2303 	umull	r2, r3, r7, r3
 80030ba:	095b      	lsrs	r3, r3, #5
 80030bc:	f003 06f0 	and.w	r6, r3, #240	; 0xf0
 80030c0:	f7ff fce6 	bl	8002a90 <HAL_RCC_GetPCLK1Freq>
 80030c4:	eb00 0080 	add.w	r0, r0, r0, lsl #2
 80030c8:	eb00 0080 	add.w	r0, r0, r0, lsl #2
 80030cc:	6863      	ldr	r3, [r4, #4]
 80030ce:	009b      	lsls	r3, r3, #2
 80030d0:	fbb0 f8f3 	udiv	r8, r0, r3
 80030d4:	f7ff fcdc 	bl	8002a90 <HAL_RCC_GetPCLK1Freq>
 80030d8:	6822      	ldr	r2, [r4, #0]
 80030da:	eb00 0080 	add.w	r0, r0, r0, lsl #2
 80030de:	eb00 0080 	add.w	r0, r0, r0, lsl #2
 80030e2:	6863      	ldr	r3, [r4, #4]
 80030e4:	009b      	lsls	r3, r3, #2
 80030e6:	fbb0 f3f3 	udiv	r3, r0, r3
 80030ea:	fba7 1303 	umull	r1, r3, r7, r3
 80030ee:	095b      	lsrs	r3, r3, #5
 80030f0:	fb09 8313 	mls	r3, r9, r3, r8
 80030f4:	011b      	lsls	r3, r3, #4
 80030f6:	3332      	adds	r3, #50	; 0x32
 80030f8:	fba7 1303 	umull	r1, r3, r7, r3
 80030fc:	f3c3 1343 	ubfx	r3, r3, #5, #4
 8003100:	4333      	orrs	r3, r6
 8003102:	442b      	add	r3, r5
 8003104:	6093      	str	r3, [r2, #8]
 8003106:	e119      	b.n	800333c <UART_SetConfig+0x37c>
 8003108:	f640 31e5 	movw	r1, #3045	; 0xbe5
 800310c:	485e      	ldr	r0, [pc, #376]	; (8003288 <UART_SetConfig+0x2c8>)
 800310e:	f7fe f987 	bl	8001420 <assert_failed>
 8003112:	e75d      	b.n	8002fd0 <UART_SetConfig+0x10>
 8003114:	f640 31e7 	movw	r1, #3047	; 0xbe7
 8003118:	485b      	ldr	r0, [pc, #364]	; (8003288 <UART_SetConfig+0x2c8>)
 800311a:	f7fe f981 	bl	8001420 <assert_failed>
 800311e:	e768      	b.n	8002ff2 <UART_SetConfig+0x32>
 8003120:	6823      	ldr	r3, [r4, #0]
 8003122:	4a5a      	ldr	r2, [pc, #360]	; (800328c <UART_SetConfig+0x2cc>)
 8003124:	4293      	cmp	r3, r2
 8003126:	d058      	beq.n	80031da <UART_SetConfig+0x21a>
 8003128:	f502 6280 	add.w	r2, r2, #1024	; 0x400
 800312c:	4293      	cmp	r3, r2
 800312e:	d054      	beq.n	80031da <UART_SetConfig+0x21a>
 8003130:	f7ff fcae 	bl	8002a90 <HAL_RCC_GetPCLK1Freq>
 8003134:	eb00 0080 	add.w	r0, r0, r0, lsl #2
 8003138:	eb00 0080 	add.w	r0, r0, r0, lsl #2
 800313c:	6863      	ldr	r3, [r4, #4]
 800313e:	005b      	lsls	r3, r3, #1
 8003140:	fbb0 f3f3 	udiv	r3, r0, r3
 8003144:	4f52      	ldr	r7, [pc, #328]	; (8003290 <UART_SetConfig+0x2d0>)
 8003146:	fba7 2303 	umull	r2, r3, r7, r3
 800314a:	095b      	lsrs	r3, r3, #5
 800314c:	011e      	lsls	r6, r3, #4
 800314e:	f7ff fc9f 	bl	8002a90 <HAL_RCC_GetPCLK1Freq>
 8003152:	eb00 0080 	add.w	r0, r0, r0, lsl #2
 8003156:	eb00 0080 	add.w	r0, r0, r0, lsl #2
 800315a:	6863      	ldr	r3, [r4, #4]
 800315c:	005b      	lsls	r3, r3, #1
 800315e:	fbb0 f5f3 	udiv	r5, r0, r3
 8003162:	f7ff fc95 	bl	8002a90 <HAL_RCC_GetPCLK1Freq>
 8003166:	eb00 0080 	add.w	r0, r0, r0, lsl #2
 800316a:	eb00 0080 	add.w	r0, r0, r0, lsl #2
 800316e:	6863      	ldr	r3, [r4, #4]
 8003170:	005b      	lsls	r3, r3, #1
 8003172:	fbb0 f3f3 	udiv	r3, r0, r3
 8003176:	fba7 2303 	umull	r2, r3, r7, r3
 800317a:	095b      	lsrs	r3, r3, #5
 800317c:	f04f 0964 	mov.w	r9, #100	; 0x64
 8003180:	fb09 5313 	mls	r3, r9, r3, r5
 8003184:	00db      	lsls	r3, r3, #3
 8003186:	3332      	adds	r3, #50	; 0x32
 8003188:	fba7 2303 	umull	r2, r3, r7, r3
 800318c:	091b      	lsrs	r3, r3, #4
 800318e:	f403 75f8 	and.w	r5, r3, #496	; 0x1f0
 8003192:	f7ff fc7d 	bl	8002a90 <HAL_RCC_GetPCLK1Freq>
 8003196:	eb00 0080 	add.w	r0, r0, r0, lsl #2
 800319a:	eb00 0080 	add.w	r0, r0, r0, lsl #2
 800319e:	6863      	ldr	r3, [r4, #4]
 80031a0:	005b      	lsls	r3, r3, #1
 80031a2:	fbb0 f8f3 	udiv	r8, r0, r3
 80031a6:	f7ff fc73 	bl	8002a90 <HAL_RCC_GetPCLK1Freq>
 80031aa:	6822      	ldr	r2, [r4, #0]
 80031ac:	eb00 0080 	add.w	r0, r0, r0, lsl #2
 80031b0:	eb00 0080 	add.w	r0, r0, r0, lsl #2
 80031b4:	6863      	ldr	r3, [r4, #4]
 80031b6:	005b      	lsls	r3, r3, #1
 80031b8:	fbb0 f3f3 	udiv	r3, r0, r3
 80031bc:	fba7 1303 	umull	r1, r3, r7, r3
 80031c0:	095b      	lsrs	r3, r3, #5
 80031c2:	fb09 8313 	mls	r3, r9, r3, r8
 80031c6:	00db      	lsls	r3, r3, #3
 80031c8:	3332      	adds	r3, #50	; 0x32
 80031ca:	fba7 1303 	umull	r1, r3, r7, r3
 80031ce:	f3c3 1342 	ubfx	r3, r3, #5, #3
 80031d2:	4433      	add	r3, r6
 80031d4:	442b      	add	r3, r5
 80031d6:	6093      	str	r3, [r2, #8]
 80031d8:	e0b0      	b.n	800333c <UART_SetConfig+0x37c>
 80031da:	f7ff fc69 	bl	8002ab0 <HAL_RCC_GetPCLK2Freq>
 80031de:	eb00 0080 	add.w	r0, r0, r0, lsl #2
 80031e2:	eb00 0080 	add.w	r0, r0, r0, lsl #2
 80031e6:	6863      	ldr	r3, [r4, #4]
 80031e8:	005b      	lsls	r3, r3, #1
 80031ea:	fbb0 f3f3 	udiv	r3, r0, r3
 80031ee:	4f28      	ldr	r7, [pc, #160]	; (8003290 <UART_SetConfig+0x2d0>)
 80031f0:	fba7 2303 	umull	r2, r3, r7, r3
 80031f4:	095b      	lsrs	r3, r3, #5
 80031f6:	011e      	lsls	r6, r3, #4
 80031f8:	f7ff fc5a 	bl	8002ab0 <HAL_RCC_GetPCLK2Freq>
 80031fc:	eb00 0080 	add.w	r0, r0, r0, lsl #2
 8003200:	eb00 0080 	add.w	r0, r0, r0, lsl #2
 8003204:	6863      	ldr	r3, [r4, #4]
 8003206:	005b      	lsls	r3, r3, #1
 8003208:	fbb0 f5f3 	udiv	r5, r0, r3
 800320c:	f7ff fc50 	bl	8002ab0 <HAL_RCC_GetPCLK2Freq>
 8003210:	eb00 0080 	add.w	r0, r0, r0, lsl #2
 8003214:	eb00 0080 	add.w	r0, r0, r0, lsl #2
 8003218:	6863      	ldr	r3, [r4, #4]
 800321a:	005b      	lsls	r3, r3, #1
 800321c:	fbb0 f3f3 	udiv	r3, r0, r3
 8003220:	fba7 2303 	umull	r2, r3, r7, r3
 8003224:	095b      	lsrs	r3, r3, #5
 8003226:	f04f 0964 	mov.w	r9, #100	; 0x64
 800322a:	fb09 5313 	mls	r3, r9, r3, r5
 800322e:	00db      	lsls	r3, r3, #3
 8003230:	3332      	adds	r3, #50	; 0x32
 8003232:	fba7 2303 	umull	r2, r3, r7, r3
 8003236:	091b      	lsrs	r3, r3, #4
 8003238:	f403 75f8 	and.w	r5, r3, #496	; 0x1f0
 800323c:	f7ff fc38 	bl	8002ab0 <HAL_RCC_GetPCLK2Freq>
 8003240:	eb00 0080 	add.w	r0, r0, r0, lsl #2
 8003244:	eb00 0080 	add.w	r0, r0, r0, lsl #2
 8003248:	6863      	ldr	r3, [r4, #4]
 800324a:	005b      	lsls	r3, r3, #1
 800324c:	fbb0 f8f3 	udiv	r8, r0, r3
 8003250:	f7ff fc2e 	bl	8002ab0 <HAL_RCC_GetPCLK2Freq>
 8003254:	6822      	ldr	r2, [r4, #0]
 8003256:	eb00 0080 	add.w	r0, r0, r0, lsl #2
 800325a:	eb00 0080 	add.w	r0, r0, r0, lsl #2
 800325e:	6863      	ldr	r3, [r4, #4]
 8003260:	005b      	lsls	r3, r3, #1
 8003262:	fbb0 f3f3 	udiv	r3, r0, r3
 8003266:	fba7 1303 	umull	r1, r3, r7, r3
 800326a:	095b      	lsrs	r3, r3, #5
 800326c:	fb09 8313 	mls	r3, r9, r3, r8
 8003270:	00db      	lsls	r3, r3, #3
 8003272:	3332      	adds	r3, #50	; 0x32
 8003274:	fba7 1303 	umull	r1, r3, r7, r3
 8003278:	f3c3 1342 	ubfx	r3, r3, #5, #3
 800327c:	4433      	add	r3, r6
 800327e:	442b      	add	r3, r5
 8003280:	6093      	str	r3, [r2, #8]
 8003282:	e05b      	b.n	800333c <UART_SetConfig+0x37c>
 8003284:	00a037a0 	.word	0x00a037a0
 8003288:	0800474c 	.word	0x0800474c
 800328c:	40011000 	.word	0x40011000
 8003290:	51eb851f 	.word	0x51eb851f
 8003294:	f7ff fc0c 	bl	8002ab0 <HAL_RCC_GetPCLK2Freq>
 8003298:	eb00 0080 	add.w	r0, r0, r0, lsl #2
 800329c:	eb00 0080 	add.w	r0, r0, r0, lsl #2
 80032a0:	6863      	ldr	r3, [r4, #4]
 80032a2:	009b      	lsls	r3, r3, #2
 80032a4:	fbb0 f3f3 	udiv	r3, r0, r3
 80032a8:	4f25      	ldr	r7, [pc, #148]	; (8003340 <UART_SetConfig+0x380>)
 80032aa:	fba7 2303 	umull	r2, r3, r7, r3
 80032ae:	095b      	lsrs	r3, r3, #5
 80032b0:	011d      	lsls	r5, r3, #4
 80032b2:	f7ff fbfd 	bl	8002ab0 <HAL_RCC_GetPCLK2Freq>
 80032b6:	eb00 0080 	add.w	r0, r0, r0, lsl #2
 80032ba:	eb00 0080 	add.w	r0, r0, r0, lsl #2
 80032be:	6863      	ldr	r3, [r4, #4]
 80032c0:	009b      	lsls	r3, r3, #2
 80032c2:	fbb0 f6f3 	udiv	r6, r0, r3
 80032c6:	f7ff fbf3 	bl	8002ab0 <HAL_RCC_GetPCLK2Freq>
 80032ca:	eb00 0080 	add.w	r0, r0, r0, lsl #2
 80032ce:	eb00 0080 	add.w	r0, r0, r0, lsl #2
 80032d2:	6863      	ldr	r3, [r4, #4]
 80032d4:	009b      	lsls	r3, r3, #2
 80032d6:	fbb0 f3f3 	udiv	r3, r0, r3
 80032da:	fba7 2303 	umull	r2, r3, r7, r3
 80032de:	095b      	lsrs	r3, r3, #5
 80032e0:	f04f 0964 	mov.w	r9, #100	; 0x64
 80032e4:	fb09 6313 	mls	r3, r9, r3, r6
 80032e8:	011b      	lsls	r3, r3, #4
 80032ea:	3332      	adds	r3, #50	; 0x32
 80032ec:	fba7 2303 	umull	r2, r3, r7, r3
 80032f0:	095b      	lsrs	r3, r3, #5
 80032f2:	f003 06f0 	and.w	r6, r3, #240	; 0xf0
 80032f6:	f7ff fbdb 	bl	8002ab0 <HAL_RCC_GetPCLK2Freq>
 80032fa:	eb00 0080 	add.w	r0, r0, r0, lsl #2
 80032fe:	eb00 0080 	add.w	r0, r0, r0, lsl #2
 8003302:	6863      	ldr	r3, [r4, #4]
 8003304:	009b      	lsls	r3, r3, #2
 8003306:	fbb0 f8f3 	udiv	r8, r0, r3
 800330a:	f7ff fbd1 	bl	8002ab0 <HAL_RCC_GetPCLK2Freq>
 800330e:	6822      	ldr	r2, [r4, #0]
 8003310:	eb00 0080 	add.w	r0, r0, r0, lsl #2
 8003314:	eb00 0080 	add.w	r0, r0, r0, lsl #2
 8003318:	6863      	ldr	r3, [r4, #4]
 800331a:	009b      	lsls	r3, r3, #2
 800331c:	fbb0 f3f3 	udiv	r3, r0, r3
 8003320:	fba7 1303 	umull	r1, r3, r7, r3
 8003324:	095b      	lsrs	r3, r3, #5
 8003326:	fb09 8313 	mls	r3, r9, r3, r8
 800332a:	011b      	lsls	r3, r3, #4
 800332c:	3332      	adds	r3, #50	; 0x32
 800332e:	fba7 1303 	umull	r1, r3, r7, r3
 8003332:	f3c3 1343 	ubfx	r3, r3, #5, #4
 8003336:	4333      	orrs	r3, r6
 8003338:	442b      	add	r3, r5
 800333a:	6093      	str	r3, [r2, #8]
 800333c:	e8bd 83f8 	ldmia.w	sp!, {r3, r4, r5, r6, r7, r8, r9, pc}
 8003340:	51eb851f 	.word	0x51eb851f

08003344 <HAL_UART_Init>:
 8003344:	2800      	cmp	r0, #0
 8003346:	d076      	beq.n	8003436 <HAL_UART_Init+0xf2>
 8003348:	b510      	push	{r4, lr}
 800334a:	4604      	mov	r4, r0
 800334c:	6983      	ldr	r3, [r0, #24]
 800334e:	2b00      	cmp	r3, #0
 8003350:	d059      	beq.n	8003406 <HAL_UART_Init+0xc2>
 8003352:	6802      	ldr	r2, [r0, #0]
 8003354:	4939      	ldr	r1, [pc, #228]	; (800343c <HAL_UART_Init+0xf8>)
 8003356:	428a      	cmp	r2, r1
 8003358:	d047      	beq.n	80033ea <HAL_UART_Init+0xa6>
 800335a:	f5a1 414c 	sub.w	r1, r1, #52224	; 0xcc00
 800335e:	428a      	cmp	r2, r1
 8003360:	d043      	beq.n	80033ea <HAL_UART_Init+0xa6>
 8003362:	f501 4150 	add.w	r1, r1, #53248	; 0xd000
 8003366:	428a      	cmp	r2, r1
 8003368:	d03f      	beq.n	80033ea <HAL_UART_Init+0xa6>
 800336a:	f240 1149 	movw	r1, #329	; 0x149
 800336e:	4834      	ldr	r0, [pc, #208]	; (8003440 <HAL_UART_Init+0xfc>)
 8003370:	f7fe f856 	bl	8001420 <assert_failed>
 8003374:	69a3      	ldr	r3, [r4, #24]
 8003376:	2b00      	cmp	r3, #0
 8003378:	d137      	bne.n	80033ea <HAL_UART_Init+0xa6>
 800337a:	68a3      	ldr	r3, [r4, #8]
 800337c:	f433 5380 	bics.w	r3, r3, #4096	; 0x1000
 8003380:	d004      	beq.n	800338c <HAL_UART_Init+0x48>
 8003382:	f44f 71a8 	mov.w	r1, #336	; 0x150
 8003386:	482e      	ldr	r0, [pc, #184]	; (8003440 <HAL_UART_Init+0xfc>)
 8003388:	f7fe f84a 	bl	8001420 <assert_failed>
 800338c:	69e3      	ldr	r3, [r4, #28]
 800338e:	f433 4300 	bics.w	r3, r3, #32768	; 0x8000
 8003392:	d004      	beq.n	800339e <HAL_UART_Init+0x5a>
 8003394:	f240 1151 	movw	r1, #337	; 0x151
 8003398:	4829      	ldr	r0, [pc, #164]	; (8003440 <HAL_UART_Init+0xfc>)
 800339a:	f7fe f841 	bl	8001420 <assert_failed>
 800339e:	f894 3039 	ldrb.w	r3, [r4, #57]	; 0x39
 80033a2:	2b00      	cmp	r3, #0
 80033a4:	d041      	beq.n	800342a <HAL_UART_Init+0xe6>
 80033a6:	2324      	movs	r3, #36	; 0x24
 80033a8:	f884 3039 	strb.w	r3, [r4, #57]	; 0x39
 80033ac:	6822      	ldr	r2, [r4, #0]
 80033ae:	68d3      	ldr	r3, [r2, #12]
 80033b0:	f423 5300 	bic.w	r3, r3, #8192	; 0x2000
 80033b4:	60d3      	str	r3, [r2, #12]
 80033b6:	4620      	mov	r0, r4
 80033b8:	f7ff fe02 	bl	8002fc0 <UART_SetConfig>
 80033bc:	6822      	ldr	r2, [r4, #0]
 80033be:	6913      	ldr	r3, [r2, #16]
 80033c0:	f423 4390 	bic.w	r3, r3, #18432	; 0x4800
 80033c4:	6113      	str	r3, [r2, #16]
 80033c6:	6822      	ldr	r2, [r4, #0]
 80033c8:	6953      	ldr	r3, [r2, #20]
 80033ca:	f023 032a 	bic.w	r3, r3, #42	; 0x2a
 80033ce:	6153      	str	r3, [r2, #20]
 80033d0:	6822      	ldr	r2, [r4, #0]
 80033d2:	68d3      	ldr	r3, [r2, #12]
 80033d4:	f443 5300 	orr.w	r3, r3, #8192	; 0x2000
 80033d8:	60d3      	str	r3, [r2, #12]
 80033da:	2000      	movs	r0, #0
 80033dc:	63e0      	str	r0, [r4, #60]	; 0x3c
 80033de:	2320      	movs	r3, #32
 80033e0:	f884 3039 	strb.w	r3, [r4, #57]	; 0x39
 80033e4:	f884 303a 	strb.w	r3, [r4, #58]	; 0x3a
 80033e8:	bd10      	pop	{r4, pc}
 80033ea:	f423 7200 	bic.w	r2, r3, #512	; 0x200
 80033ee:	f5b2 7f80 	cmp.w	r2, #256	; 0x100
 80033f2:	d0c2      	beq.n	800337a <HAL_UART_Init+0x36>
 80033f4:	f5b3 7f00 	cmp.w	r3, #512	; 0x200
 80033f8:	d0bf      	beq.n	800337a <HAL_UART_Init+0x36>
 80033fa:	f44f 71a5 	mov.w	r1, #330	; 0x14a
 80033fe:	4810      	ldr	r0, [pc, #64]	; (8003440 <HAL_UART_Init+0xfc>)
 8003400:	f7fe f80e 	bl	8001420 <assert_failed>
 8003404:	e7b9      	b.n	800337a <HAL_UART_Init+0x36>
 8003406:	6803      	ldr	r3, [r0, #0]
 8003408:	4a0c      	ldr	r2, [pc, #48]	; (800343c <HAL_UART_Init+0xf8>)
 800340a:	4293      	cmp	r3, r2
 800340c:	d0b5      	beq.n	800337a <HAL_UART_Init+0x36>
 800340e:	f5a2 424c 	sub.w	r2, r2, #52224	; 0xcc00
 8003412:	4293      	cmp	r3, r2
 8003414:	d0b1      	beq.n	800337a <HAL_UART_Init+0x36>
 8003416:	f502 4250 	add.w	r2, r2, #53248	; 0xd000
 800341a:	4293      	cmp	r3, r2
 800341c:	d0ad      	beq.n	800337a <HAL_UART_Init+0x36>
 800341e:	f44f 71a7 	mov.w	r1, #334	; 0x14e
 8003422:	4807      	ldr	r0, [pc, #28]	; (8003440 <HAL_UART_Init+0xfc>)
 8003424:	f7fd fffc 	bl	8001420 <assert_failed>
 8003428:	e7a7      	b.n	800337a <HAL_UART_Init+0x36>
 800342a:	f884 3038 	strb.w	r3, [r4, #56]	; 0x38
 800342e:	4620      	mov	r0, r4
 8003430:	f7fe f9a8 	bl	8001784 <HAL_UART_MspInit>
 8003434:	e7b7      	b.n	80033a6 <HAL_UART_Init+0x62>
 8003436:	2001      	movs	r0, #1
 8003438:	4770      	bx	lr
 800343a:	bf00      	nop
 800343c:	40011000 	.word	0x40011000
 8003440:	0800474c 	.word	0x0800474c

08003444 <HAL_UART_Transmit_IT>:
 8003444:	f890 3039 	ldrb.w	r3, [r0, #57]	; 0x39
 8003448:	b2db      	uxtb	r3, r3
 800344a:	2b20      	cmp	r3, #32
 800344c:	d116      	bne.n	800347c <HAL_UART_Transmit_IT+0x38>
 800344e:	b1b9      	cbz	r1, 8003480 <HAL_UART_Transmit_IT+0x3c>
 8003450:	b1c2      	cbz	r2, 8003484 <HAL_UART_Transmit_IT+0x40>
 8003452:	f890 3038 	ldrb.w	r3, [r0, #56]	; 0x38
 8003456:	2b01      	cmp	r3, #1
 8003458:	d016      	beq.n	8003488 <HAL_UART_Transmit_IT+0x44>
 800345a:	6201      	str	r1, [r0, #32]
 800345c:	8482      	strh	r2, [r0, #36]	; 0x24
 800345e:	84c2      	strh	r2, [r0, #38]	; 0x26
 8003460:	2300      	movs	r3, #0
 8003462:	63c3      	str	r3, [r0, #60]	; 0x3c
 8003464:	2221      	movs	r2, #33	; 0x21
 8003466:	f880 2039 	strb.w	r2, [r0, #57]	; 0x39
 800346a:	f880 3038 	strb.w	r3, [r0, #56]	; 0x38
 800346e:	6801      	ldr	r1, [r0, #0]
 8003470:	68ca      	ldr	r2, [r1, #12]
 8003472:	f042 0280 	orr.w	r2, r2, #128	; 0x80
 8003476:	60ca      	str	r2, [r1, #12]
 8003478:	4618      	mov	r0, r3
 800347a:	4770      	bx	lr
 800347c:	2002      	movs	r0, #2
 800347e:	4770      	bx	lr
 8003480:	2001      	movs	r0, #1
 8003482:	4770      	bx	lr
 8003484:	2001      	movs	r0, #1
 8003486:	4770      	bx	lr
 8003488:	2002      	movs	r0, #2
 800348a:	4770      	bx	lr

0800348c <HAL_UART_Receive_IT>:
 800348c:	f890 303a 	ldrb.w	r3, [r0, #58]	; 0x3a
 8003490:	b2db      	uxtb	r3, r3
 8003492:	2b20      	cmp	r3, #32
 8003494:	d120      	bne.n	80034d8 <HAL_UART_Receive_IT+0x4c>
 8003496:	b309      	cbz	r1, 80034dc <HAL_UART_Receive_IT+0x50>
 8003498:	b312      	cbz	r2, 80034e0 <HAL_UART_Receive_IT+0x54>
 800349a:	f890 3038 	ldrb.w	r3, [r0, #56]	; 0x38
 800349e:	2b01      	cmp	r3, #1
 80034a0:	d020      	beq.n	80034e4 <HAL_UART_Receive_IT+0x58>
 80034a2:	6281      	str	r1, [r0, #40]	; 0x28
 80034a4:	8582      	strh	r2, [r0, #44]	; 0x2c
 80034a6:	85c2      	strh	r2, [r0, #46]	; 0x2e
 80034a8:	2300      	movs	r3, #0
 80034aa:	63c3      	str	r3, [r0, #60]	; 0x3c
 80034ac:	2222      	movs	r2, #34	; 0x22
 80034ae:	f880 203a 	strb.w	r2, [r0, #58]	; 0x3a
 80034b2:	f880 3038 	strb.w	r3, [r0, #56]	; 0x38
 80034b6:	6801      	ldr	r1, [r0, #0]
 80034b8:	68ca      	ldr	r2, [r1, #12]
 80034ba:	f442 7280 	orr.w	r2, r2, #256	; 0x100
 80034be:	60ca      	str	r2, [r1, #12]
 80034c0:	6801      	ldr	r1, [r0, #0]
 80034c2:	694a      	ldr	r2, [r1, #20]
 80034c4:	f042 0201 	orr.w	r2, r2, #1
 80034c8:	614a      	str	r2, [r1, #20]
 80034ca:	6801      	ldr	r1, [r0, #0]
 80034cc:	68ca      	ldr	r2, [r1, #12]
 80034ce:	f042 0220 	orr.w	r2, r2, #32
 80034d2:	60ca      	str	r2, [r1, #12]
 80034d4:	4618      	mov	r0, r3
 80034d6:	4770      	bx	lr
 80034d8:	2002      	movs	r0, #2
 80034da:	4770      	bx	lr
 80034dc:	2001      	movs	r0, #1
 80034de:	4770      	bx	lr
 80034e0:	2001      	movs	r0, #1
 80034e2:	4770      	bx	lr
 80034e4:	2002      	movs	r0, #2
 80034e6:	4770      	bx	lr

080034e8 <HAL_UART_TxCpltCallback>:
 80034e8:	4770      	bx	lr

080034ea <UART_Receive_IT>:
 80034ea:	b508      	push	{r3, lr}
 80034ec:	f890 303a 	ldrb.w	r3, [r0, #58]	; 0x3a
 80034f0:	b2db      	uxtb	r3, r3
 80034f2:	2b22      	cmp	r3, #34	; 0x22
 80034f4:	d145      	bne.n	8003582 <UART_Receive_IT+0x98>
 80034f6:	6883      	ldr	r3, [r0, #8]
 80034f8:	f5b3 5f80 	cmp.w	r3, #4096	; 0x1000
 80034fc:	d00e      	beq.n	800351c <UART_Receive_IT+0x32>
 80034fe:	6903      	ldr	r3, [r0, #16]
 8003500:	bb03      	cbnz	r3, 8003544 <UART_Receive_IT+0x5a>
 8003502:	6803      	ldr	r3, [r0, #0]
 8003504:	685a      	ldr	r2, [r3, #4]
 8003506:	6a83      	ldr	r3, [r0, #40]	; 0x28
 8003508:	1c59      	adds	r1, r3, #1
 800350a:	6281      	str	r1, [r0, #40]	; 0x28
 800350c:	701a      	strb	r2, [r3, #0]
 800350e:	8dc3      	ldrh	r3, [r0, #46]	; 0x2e
 8003510:	3b01      	subs	r3, #1
 8003512:	b29b      	uxth	r3, r3
 8003514:	85c3      	strh	r3, [r0, #46]	; 0x2e
 8003516:	b1f3      	cbz	r3, 8003556 <UART_Receive_IT+0x6c>
 8003518:	2000      	movs	r0, #0
 800351a:	e033      	b.n	8003584 <UART_Receive_IT+0x9a>
 800351c:	6a82      	ldr	r2, [r0, #40]	; 0x28
 800351e:	6903      	ldr	r3, [r0, #16]
 8003520:	b943      	cbnz	r3, 8003534 <UART_Receive_IT+0x4a>
 8003522:	6803      	ldr	r3, [r0, #0]
 8003524:	685b      	ldr	r3, [r3, #4]
 8003526:	f3c3 0308 	ubfx	r3, r3, #0, #9
 800352a:	8013      	strh	r3, [r2, #0]
 800352c:	6a83      	ldr	r3, [r0, #40]	; 0x28
 800352e:	3302      	adds	r3, #2
 8003530:	6283      	str	r3, [r0, #40]	; 0x28
 8003532:	e7ec      	b.n	800350e <UART_Receive_IT+0x24>
 8003534:	6803      	ldr	r3, [r0, #0]
 8003536:	685b      	ldr	r3, [r3, #4]
 8003538:	b2db      	uxtb	r3, r3
 800353a:	8013      	strh	r3, [r2, #0]
 800353c:	6a83      	ldr	r3, [r0, #40]	; 0x28
 800353e:	3301      	adds	r3, #1
 8003540:	6283      	str	r3, [r0, #40]	; 0x28
 8003542:	e7e4      	b.n	800350e <UART_Receive_IT+0x24>
 8003544:	6803      	ldr	r3, [r0, #0]
 8003546:	685b      	ldr	r3, [r3, #4]
 8003548:	6a82      	ldr	r2, [r0, #40]	; 0x28
 800354a:	1c51      	adds	r1, r2, #1
 800354c:	6281      	str	r1, [r0, #40]	; 0x28
 800354e:	f003 037f 	and.w	r3, r3, #127	; 0x7f
 8003552:	7013      	strb	r3, [r2, #0]
 8003554:	e7db      	b.n	800350e <UART_Receive_IT+0x24>
 8003556:	6802      	ldr	r2, [r0, #0]
 8003558:	68d3      	ldr	r3, [r2, #12]
 800355a:	f023 0320 	bic.w	r3, r3, #32
 800355e:	60d3      	str	r3, [r2, #12]
 8003560:	6802      	ldr	r2, [r0, #0]
 8003562:	68d3      	ldr	r3, [r2, #12]
 8003564:	f423 7380 	bic.w	r3, r3, #256	; 0x100
 8003568:	60d3      	str	r3, [r2, #12]
 800356a:	6802      	ldr	r2, [r0, #0]
 800356c:	6953      	ldr	r3, [r2, #20]
 800356e:	f023 0301 	bic.w	r3, r3, #1
 8003572:	6153      	str	r3, [r2, #20]
 8003574:	2320      	movs	r3, #32
 8003576:	f880 303a 	strb.w	r3, [r0, #58]	; 0x3a
 800357a:	f7fd fe5d 	bl	8001238 <HAL_UART_RxCpltCallback>
 800357e:	2000      	movs	r0, #0
 8003580:	e000      	b.n	8003584 <UART_Receive_IT+0x9a>
 8003582:	2002      	movs	r0, #2
 8003584:	bd08      	pop	{r3, pc}

08003586 <HAL_UART_ErrorCallback>:
 8003586:	4770      	bx	lr

08003588 <HAL_UART_IRQHandler>:
 8003588:	b510      	push	{r4, lr}
 800358a:	4604      	mov	r4, r0
 800358c:	6802      	ldr	r2, [r0, #0]
 800358e:	6813      	ldr	r3, [r2, #0]
 8003590:	68d0      	ldr	r0, [r2, #12]
 8003592:	6951      	ldr	r1, [r2, #20]
 8003594:	f013 0f0f 	tst.w	r3, #15
 8003598:	d117      	bne.n	80035ca <HAL_UART_IRQHandler+0x42>
 800359a:	f013 0f20 	tst.w	r3, #32
 800359e:	d002      	beq.n	80035a6 <HAL_UART_IRQHandler+0x1e>
 80035a0:	f010 0f20 	tst.w	r0, #32
 80035a4:	d10d      	bne.n	80035c2 <HAL_UART_IRQHandler+0x3a>
 80035a6:	f013 0f80 	tst.w	r3, #128	; 0x80
 80035aa:	d002      	beq.n	80035b2 <HAL_UART_IRQHandler+0x2a>
 80035ac:	f010 0f80 	tst.w	r0, #128	; 0x80
 80035b0:	d177      	bne.n	80036a2 <HAL_UART_IRQHandler+0x11a>
 80035b2:	f013 0f40 	tst.w	r3, #64	; 0x40
 80035b6:	d003      	beq.n	80035c0 <HAL_UART_IRQHandler+0x38>
 80035b8:	f010 0f40 	tst.w	r0, #64	; 0x40
 80035bc:	f040 80a0 	bne.w	8003700 <HAL_UART_IRQHandler+0x178>
 80035c0:	bd10      	pop	{r4, pc}
 80035c2:	4620      	mov	r0, r4
 80035c4:	f7ff ff91 	bl	80034ea <UART_Receive_IT>
 80035c8:	e7fa      	b.n	80035c0 <HAL_UART_IRQHandler+0x38>
 80035ca:	f011 0101 	ands.w	r1, r1, #1
 80035ce:	d102      	bne.n	80035d6 <HAL_UART_IRQHandler+0x4e>
 80035d0:	f410 7f90 	tst.w	r0, #288	; 0x120
 80035d4:	d0e7      	beq.n	80035a6 <HAL_UART_IRQHandler+0x1e>
 80035d6:	f013 0f01 	tst.w	r3, #1
 80035da:	d006      	beq.n	80035ea <HAL_UART_IRQHandler+0x62>
 80035dc:	f410 7f80 	tst.w	r0, #256	; 0x100
 80035e0:	d003      	beq.n	80035ea <HAL_UART_IRQHandler+0x62>
 80035e2:	6be2      	ldr	r2, [r4, #60]	; 0x3c
 80035e4:	f042 0201 	orr.w	r2, r2, #1
 80035e8:	63e2      	str	r2, [r4, #60]	; 0x3c
 80035ea:	f013 0f04 	tst.w	r3, #4
 80035ee:	d040      	beq.n	8003672 <HAL_UART_IRQHandler+0xea>
 80035f0:	2900      	cmp	r1, #0
 80035f2:	f000 8090 	beq.w	8003716 <HAL_UART_IRQHandler+0x18e>
 80035f6:	6be2      	ldr	r2, [r4, #60]	; 0x3c
 80035f8:	f042 0202 	orr.w	r2, r2, #2
 80035fc:	63e2      	str	r2, [r4, #60]	; 0x3c
 80035fe:	f013 0f02 	tst.w	r3, #2
 8003602:	f000 8094 	beq.w	800372e <HAL_UART_IRQHandler+0x1a6>
 8003606:	6be2      	ldr	r2, [r4, #60]	; 0x3c
 8003608:	f042 0204 	orr.w	r2, r2, #4
 800360c:	63e2      	str	r2, [r4, #60]	; 0x3c
 800360e:	f013 0f08 	tst.w	r3, #8
 8003612:	d003      	beq.n	800361c <HAL_UART_IRQHandler+0x94>
 8003614:	6be2      	ldr	r2, [r4, #60]	; 0x3c
 8003616:	f042 0208 	orr.w	r2, r2, #8
 800361a:	63e2      	str	r2, [r4, #60]	; 0x3c
 800361c:	6be2      	ldr	r2, [r4, #60]	; 0x3c
 800361e:	2a00      	cmp	r2, #0
 8003620:	d0ce      	beq.n	80035c0 <HAL_UART_IRQHandler+0x38>
 8003622:	f013 0f20 	tst.w	r3, #32
 8003626:	d002      	beq.n	800362e <HAL_UART_IRQHandler+0xa6>
 8003628:	f010 0f20 	tst.w	r0, #32
 800362c:	d127      	bne.n	800367e <HAL_UART_IRQHandler+0xf6>
 800362e:	6823      	ldr	r3, [r4, #0]
 8003630:	695a      	ldr	r2, [r3, #20]
 8003632:	6be3      	ldr	r3, [r4, #60]	; 0x3c
 8003634:	f013 0f08 	tst.w	r3, #8
 8003638:	d102      	bne.n	8003640 <HAL_UART_IRQHandler+0xb8>
 800363a:	f012 0f40 	tst.w	r2, #64	; 0x40
 800363e:	d02a      	beq.n	8003696 <HAL_UART_IRQHandler+0x10e>
 8003640:	4620      	mov	r0, r4
 8003642:	f7ff fcae 	bl	8002fa2 <UART_EndRxTransfer>
 8003646:	6823      	ldr	r3, [r4, #0]
 8003648:	695a      	ldr	r2, [r3, #20]
 800364a:	f012 0f40 	tst.w	r2, #64	; 0x40
 800364e:	d01e      	beq.n	800368e <HAL_UART_IRQHandler+0x106>
 8003650:	695a      	ldr	r2, [r3, #20]
 8003652:	f022 0240 	bic.w	r2, r2, #64	; 0x40
 8003656:	615a      	str	r2, [r3, #20]
 8003658:	6b63      	ldr	r3, [r4, #52]	; 0x34
 800365a:	b1a3      	cbz	r3, 8003686 <HAL_UART_IRQHandler+0xfe>
 800365c:	4a36      	ldr	r2, [pc, #216]	; (8003738 <HAL_UART_IRQHandler+0x1b0>)
 800365e:	651a      	str	r2, [r3, #80]	; 0x50
 8003660:	6b60      	ldr	r0, [r4, #52]	; 0x34
 8003662:	f7fe fbcd 	bl	8001e00 <HAL_DMA_Abort_IT>
 8003666:	2800      	cmp	r0, #0
 8003668:	d0aa      	beq.n	80035c0 <HAL_UART_IRQHandler+0x38>
 800366a:	6b60      	ldr	r0, [r4, #52]	; 0x34
 800366c:	6d03      	ldr	r3, [r0, #80]	; 0x50
 800366e:	4798      	blx	r3
 8003670:	e7a6      	b.n	80035c0 <HAL_UART_IRQHandler+0x38>
 8003672:	f013 0f02 	tst.w	r3, #2
 8003676:	d052      	beq.n	800371e <HAL_UART_IRQHandler+0x196>
 8003678:	2900      	cmp	r1, #0
 800367a:	d1c4      	bne.n	8003606 <HAL_UART_IRQHandler+0x7e>
 800367c:	e7ce      	b.n	800361c <HAL_UART_IRQHandler+0x94>
 800367e:	4620      	mov	r0, r4
 8003680:	f7ff ff33 	bl	80034ea <UART_Receive_IT>
 8003684:	e7d3      	b.n	800362e <HAL_UART_IRQHandler+0xa6>
 8003686:	4620      	mov	r0, r4
 8003688:	f7ff ff7d 	bl	8003586 <HAL_UART_ErrorCallback>
 800368c:	e798      	b.n	80035c0 <HAL_UART_IRQHandler+0x38>
 800368e:	4620      	mov	r0, r4
 8003690:	f7ff ff79 	bl	8003586 <HAL_UART_ErrorCallback>
 8003694:	e794      	b.n	80035c0 <HAL_UART_IRQHandler+0x38>
 8003696:	4620      	mov	r0, r4
 8003698:	f7ff ff75 	bl	8003586 <HAL_UART_ErrorCallback>
 800369c:	2300      	movs	r3, #0
 800369e:	63e3      	str	r3, [r4, #60]	; 0x3c
 80036a0:	e78e      	b.n	80035c0 <HAL_UART_IRQHandler+0x38>
 80036a2:	f894 3039 	ldrb.w	r3, [r4, #57]	; 0x39
 80036a6:	b2db      	uxtb	r3, r3
 80036a8:	2b21      	cmp	r3, #33	; 0x21
 80036aa:	d189      	bne.n	80035c0 <HAL_UART_IRQHandler+0x38>
 80036ac:	68a3      	ldr	r3, [r4, #8]
 80036ae:	f5b3 5f80 	cmp.w	r3, #4096	; 0x1000
 80036b2:	d016      	beq.n	80036e2 <HAL_UART_IRQHandler+0x15a>
 80036b4:	6a23      	ldr	r3, [r4, #32]
 80036b6:	1c59      	adds	r1, r3, #1
 80036b8:	6221      	str	r1, [r4, #32]
 80036ba:	781b      	ldrb	r3, [r3, #0]
 80036bc:	6053      	str	r3, [r2, #4]
 80036be:	8ce3      	ldrh	r3, [r4, #38]	; 0x26
 80036c0:	3b01      	subs	r3, #1
 80036c2:	b29b      	uxth	r3, r3
 80036c4:	84e3      	strh	r3, [r4, #38]	; 0x26
 80036c6:	2b00      	cmp	r3, #0
 80036c8:	f47f af7a 	bne.w	80035c0 <HAL_UART_IRQHandler+0x38>
 80036cc:	6822      	ldr	r2, [r4, #0]
 80036ce:	68d3      	ldr	r3, [r2, #12]
 80036d0:	f023 0380 	bic.w	r3, r3, #128	; 0x80
 80036d4:	60d3      	str	r3, [r2, #12]
 80036d6:	6822      	ldr	r2, [r4, #0]
 80036d8:	68d3      	ldr	r3, [r2, #12]
 80036da:	f043 0340 	orr.w	r3, r3, #64	; 0x40
 80036de:	60d3      	str	r3, [r2, #12]
 80036e0:	e76e      	b.n	80035c0 <HAL_UART_IRQHandler+0x38>
 80036e2:	6a23      	ldr	r3, [r4, #32]
 80036e4:	881b      	ldrh	r3, [r3, #0]
 80036e6:	f3c3 0308 	ubfx	r3, r3, #0, #9
 80036ea:	6053      	str	r3, [r2, #4]
 80036ec:	6923      	ldr	r3, [r4, #16]
 80036ee:	b91b      	cbnz	r3, 80036f8 <HAL_UART_IRQHandler+0x170>
 80036f0:	6a23      	ldr	r3, [r4, #32]
 80036f2:	3302      	adds	r3, #2
 80036f4:	6223      	str	r3, [r4, #32]
 80036f6:	e7e2      	b.n	80036be <HAL_UART_IRQHandler+0x136>
 80036f8:	6a23      	ldr	r3, [r4, #32]
 80036fa:	3301      	adds	r3, #1
 80036fc:	6223      	str	r3, [r4, #32]
 80036fe:	e7de      	b.n	80036be <HAL_UART_IRQHandler+0x136>
 8003700:	68d3      	ldr	r3, [r2, #12]
 8003702:	f023 0340 	bic.w	r3, r3, #64	; 0x40
 8003706:	60d3      	str	r3, [r2, #12]
 8003708:	2320      	movs	r3, #32
 800370a:	f884 3039 	strb.w	r3, [r4, #57]	; 0x39
 800370e:	4620      	mov	r0, r4
 8003710:	f7ff feea 	bl	80034e8 <HAL_UART_TxCpltCallback>
 8003714:	e754      	b.n	80035c0 <HAL_UART_IRQHandler+0x38>
 8003716:	f013 0f02 	tst.w	r3, #2
 800371a:	f47f af7f 	bne.w	800361c <HAL_UART_IRQHandler+0x94>
 800371e:	f013 0f08 	tst.w	r3, #8
 8003722:	f43f af7b 	beq.w	800361c <HAL_UART_IRQHandler+0x94>
 8003726:	2900      	cmp	r1, #0
 8003728:	f43f af78 	beq.w	800361c <HAL_UART_IRQHandler+0x94>
 800372c:	e772      	b.n	8003614 <HAL_UART_IRQHandler+0x8c>
 800372e:	f013 0f08 	tst.w	r3, #8
 8003732:	f47f af6f 	bne.w	8003614 <HAL_UART_IRQHandler+0x8c>
 8003736:	e771      	b.n	800361c <HAL_UART_IRQHandler+0x94>
 8003738:	0800373d 	.word	0x0800373d

0800373c <UART_DMAAbortOnError>:
 800373c:	b508      	push	{r3, lr}
 800373e:	6b80      	ldr	r0, [r0, #56]	; 0x38
 8003740:	2300      	movs	r3, #0
 8003742:	85c3      	strh	r3, [r0, #46]	; 0x2e
 8003744:	84c3      	strh	r3, [r0, #38]	; 0x26
 8003746:	f7ff ff1e 	bl	8003586 <HAL_UART_ErrorCallback>
 800374a:	bd08      	pop	{r3, pc}

0800374c <HAL_UART_GetState>:
 800374c:	f890 3039 	ldrb.w	r3, [r0, #57]	; 0x39
 8003750:	f890 003a 	ldrb.w	r0, [r0, #58]	; 0x3a
 8003754:	4318      	orrs	r0, r3
 8003756:	4770      	bx	lr

08003758 <aci_gap_init_IDB05A1>:
 8003758:	b510      	push	{r4, lr}
 800375a:	b08a      	sub	sp, #40	; 0x28
 800375c:	461c      	mov	r4, r3
 800375e:	f88d 000c 	strb.w	r0, [sp, #12]
 8003762:	f88d 100d 	strb.w	r1, [sp, #13]
 8003766:	f88d 200e 	strb.w	r2, [sp, #14]
 800376a:	ab01      	add	r3, sp, #4
 800376c:	2100      	movs	r1, #0
 800376e:	9101      	str	r1, [sp, #4]
 8003770:	f8cd 1007 	str.w	r1, [sp, #7]
 8003774:	9105      	str	r1, [sp, #20]
 8003776:	223f      	movs	r2, #63	; 0x3f
 8003778:	f8ad 2010 	strh.w	r2, [sp, #16]
 800377c:	228a      	movs	r2, #138	; 0x8a
 800377e:	f8ad 2012 	strh.w	r2, [sp, #18]
 8003782:	aa03      	add	r2, sp, #12
 8003784:	9206      	str	r2, [sp, #24]
 8003786:	2203      	movs	r2, #3
 8003788:	9207      	str	r2, [sp, #28]
 800378a:	9308      	str	r3, [sp, #32]
 800378c:	2307      	movs	r3, #7
 800378e:	9309      	str	r3, [sp, #36]	; 0x24
 8003790:	a804      	add	r0, sp, #16
 8003792:	f000 fb49 	bl	8003e28 <hci_send_req>
 8003796:	2800      	cmp	r0, #0
 8003798:	db15      	blt.n	80037c6 <aci_gap_init_IDB05A1+0x6e>
 800379a:	f89d 0004 	ldrb.w	r0, [sp, #4]
 800379e:	b980      	cbnz	r0, 80037c2 <aci_gap_init_IDB05A1+0x6a>
 80037a0:	9b01      	ldr	r3, [sp, #4]
 80037a2:	f3c3 230f 	ubfx	r3, r3, #8, #16
 80037a6:	8023      	strh	r3, [r4, #0]
 80037a8:	f89d 3007 	ldrb.w	r3, [sp, #7]
 80037ac:	f89d 2008 	ldrb.w	r2, [sp, #8]
 80037b0:	ea43 2302 	orr.w	r3, r3, r2, lsl #8
 80037b4:	9a0c      	ldr	r2, [sp, #48]	; 0x30
 80037b6:	8013      	strh	r3, [r2, #0]
 80037b8:	9b02      	ldr	r3, [sp, #8]
 80037ba:	f3c3 230f 	ubfx	r3, r3, #8, #16
 80037be:	9a0d      	ldr	r2, [sp, #52]	; 0x34
 80037c0:	8013      	strh	r3, [r2, #0]
 80037c2:	b00a      	add	sp, #40	; 0x28
 80037c4:	bd10      	pop	{r4, pc}
 80037c6:	20ff      	movs	r0, #255	; 0xff
 80037c8:	e7fb      	b.n	80037c2 <aci_gap_init_IDB05A1+0x6a>

080037ca <aci_gap_init_IDB04A1>:
 80037ca:	b570      	push	{r4, r5, r6, lr}
 80037cc:	b08a      	sub	sp, #40	; 0x28
 80037ce:	460e      	mov	r6, r1
 80037d0:	4615      	mov	r5, r2
 80037d2:	461c      	mov	r4, r3
 80037d4:	f88d 000c 	strb.w	r0, [sp, #12]
 80037d8:	ab01      	add	r3, sp, #4
 80037da:	2100      	movs	r1, #0
 80037dc:	9101      	str	r1, [sp, #4]
 80037de:	f8cd 1007 	str.w	r1, [sp, #7]
 80037e2:	9105      	str	r1, [sp, #20]
 80037e4:	223f      	movs	r2, #63	; 0x3f
 80037e6:	f8ad 2010 	strh.w	r2, [sp, #16]
 80037ea:	228a      	movs	r2, #138	; 0x8a
 80037ec:	f8ad 2012 	strh.w	r2, [sp, #18]
 80037f0:	aa03      	add	r2, sp, #12
 80037f2:	9206      	str	r2, [sp, #24]
 80037f4:	2201      	movs	r2, #1
 80037f6:	9207      	str	r2, [sp, #28]
 80037f8:	9308      	str	r3, [sp, #32]
 80037fa:	2307      	movs	r3, #7
 80037fc:	9309      	str	r3, [sp, #36]	; 0x24
 80037fe:	a804      	add	r0, sp, #16
 8003800:	f000 fb12 	bl	8003e28 <hci_send_req>
 8003804:	2800      	cmp	r0, #0
 8003806:	db13      	blt.n	8003830 <aci_gap_init_IDB04A1+0x66>
 8003808:	f89d 0004 	ldrb.w	r0, [sp, #4]
 800380c:	b970      	cbnz	r0, 800382c <aci_gap_init_IDB04A1+0x62>
 800380e:	9b01      	ldr	r3, [sp, #4]
 8003810:	f3c3 230f 	ubfx	r3, r3, #8, #16
 8003814:	8033      	strh	r3, [r6, #0]
 8003816:	f89d 3007 	ldrb.w	r3, [sp, #7]
 800381a:	f89d 2008 	ldrb.w	r2, [sp, #8]
 800381e:	ea43 2302 	orr.w	r3, r3, r2, lsl #8
 8003822:	802b      	strh	r3, [r5, #0]
 8003824:	9b02      	ldr	r3, [sp, #8]
 8003826:	f3c3 230f 	ubfx	r3, r3, #8, #16
 800382a:	8023      	strh	r3, [r4, #0]
 800382c:	b00a      	add	sp, #40	; 0x28
 800382e:	bd70      	pop	{r4, r5, r6, pc}
 8003830:	20ff      	movs	r0, #255	; 0xff
 8003832:	e7fb      	b.n	800382c <aci_gap_init_IDB04A1+0x62>

08003834 <aci_gap_set_auth_requirement>:
 8003834:	b510      	push	{r4, lr}
 8003836:	b08e      	sub	sp, #56	; 0x38
 8003838:	f88d 0004 	strb.w	r0, [sp, #4]
 800383c:	f88d 1005 	strb.w	r1, [sp, #5]
 8003840:	6814      	ldr	r4, [r2, #0]
 8003842:	6850      	ldr	r0, [r2, #4]
 8003844:	6891      	ldr	r1, [r2, #8]
 8003846:	68d2      	ldr	r2, [r2, #12]
 8003848:	f8cd 4006 	str.w	r4, [sp, #6]
 800384c:	f8cd 000a 	str.w	r0, [sp, #10]
 8003850:	f8cd 100e 	str.w	r1, [sp, #14]
 8003854:	f8cd 2012 	str.w	r2, [sp, #18]
 8003858:	f88d 3016 	strb.w	r3, [sp, #22]
 800385c:	f89d 3040 	ldrb.w	r3, [sp, #64]	; 0x40
 8003860:	f88d 3017 	strb.w	r3, [sp, #23]
 8003864:	f89d 3044 	ldrb.w	r3, [sp, #68]	; 0x44
 8003868:	f88d 3018 	strb.w	r3, [sp, #24]
 800386c:	9b12      	ldr	r3, [sp, #72]	; 0x48
 800386e:	f8cd 3019 	str.w	r3, [sp, #25]
 8003872:	f89d 304c 	ldrb.w	r3, [sp, #76]	; 0x4c
 8003876:	f88d 301d 	strb.w	r3, [sp, #29]
 800387a:	2100      	movs	r1, #0
 800387c:	9109      	str	r1, [sp, #36]	; 0x24
 800387e:	233f      	movs	r3, #63	; 0x3f
 8003880:	f8ad 3020 	strh.w	r3, [sp, #32]
 8003884:	2386      	movs	r3, #134	; 0x86
 8003886:	f8ad 3022 	strh.w	r3, [sp, #34]	; 0x22
 800388a:	ab01      	add	r3, sp, #4
 800388c:	930a      	str	r3, [sp, #40]	; 0x28
 800388e:	231a      	movs	r3, #26
 8003890:	930b      	str	r3, [sp, #44]	; 0x2c
 8003892:	f10d 0303 	add.w	r3, sp, #3
 8003896:	930c      	str	r3, [sp, #48]	; 0x30
 8003898:	2301      	movs	r3, #1
 800389a:	930d      	str	r3, [sp, #52]	; 0x34
 800389c:	a808      	add	r0, sp, #32
 800389e:	f000 fac3 	bl	8003e28 <hci_send_req>
 80038a2:	2800      	cmp	r0, #0
 80038a4:	bfac      	ite	ge
 80038a6:	f89d 0003 	ldrbge.w	r0, [sp, #3]
 80038aa:	20ff      	movlt	r0, #255	; 0xff
 80038ac:	b00e      	add	sp, #56	; 0x38
 80038ae:	bd10      	pop	{r4, pc}

080038b0 <aci_gap_start_general_discovery_proc>:
 80038b0:	b500      	push	{lr}
 80038b2:	b08b      	sub	sp, #44	; 0x2c
 80038b4:	f8ad 0008 	strh.w	r0, [sp, #8]
 80038b8:	f8ad 100a 	strh.w	r1, [sp, #10]
 80038bc:	f88d 200c 	strb.w	r2, [sp, #12]
 80038c0:	f88d 300d 	strb.w	r3, [sp, #13]
 80038c4:	233f      	movs	r3, #63	; 0x3f
 80038c6:	f8ad 3010 	strh.w	r3, [sp, #16]
 80038ca:	2397      	movs	r3, #151	; 0x97
 80038cc:	f8ad 3012 	strh.w	r3, [sp, #18]
 80038d0:	ab02      	add	r3, sp, #8
 80038d2:	9306      	str	r3, [sp, #24]
 80038d4:	2306      	movs	r3, #6
 80038d6:	9307      	str	r3, [sp, #28]
 80038d8:	230f      	movs	r3, #15
 80038da:	9305      	str	r3, [sp, #20]
 80038dc:	f10d 0307 	add.w	r3, sp, #7
 80038e0:	9308      	str	r3, [sp, #32]
 80038e2:	2301      	movs	r3, #1
 80038e4:	9309      	str	r3, [sp, #36]	; 0x24
 80038e6:	2100      	movs	r1, #0
 80038e8:	a804      	add	r0, sp, #16
 80038ea:	f000 fa9d 	bl	8003e28 <hci_send_req>
 80038ee:	2800      	cmp	r0, #0
 80038f0:	bfac      	ite	ge
 80038f2:	f89d 0007 	ldrbge.w	r0, [sp, #7]
 80038f6:	20ff      	movlt	r0, #255	; 0xff
 80038f8:	b00b      	add	sp, #44	; 0x2c
 80038fa:	f85d fb04 	ldr.w	pc, [sp], #4

080038fe <aci_gap_create_connection>:
 80038fe:	b500      	push	{lr}
 8003900:	b08f      	sub	sp, #60	; 0x3c
 8003902:	f8ad 0008 	strh.w	r0, [sp, #8]
 8003906:	f8ad 100a 	strh.w	r1, [sp, #10]
 800390a:	f88d 200c 	strb.w	r2, [sp, #12]
 800390e:	681a      	ldr	r2, [r3, #0]
 8003910:	f8cd 200d 	str.w	r2, [sp, #13]
 8003914:	889b      	ldrh	r3, [r3, #4]
 8003916:	f8ad 3011 	strh.w	r3, [sp, #17]
 800391a:	f89d 3040 	ldrb.w	r3, [sp, #64]	; 0x40
 800391e:	f88d 3013 	strb.w	r3, [sp, #19]
 8003922:	f8bd 3044 	ldrh.w	r3, [sp, #68]	; 0x44
 8003926:	f8ad 3014 	strh.w	r3, [sp, #20]
 800392a:	f8bd 3048 	ldrh.w	r3, [sp, #72]	; 0x48
 800392e:	f8ad 3016 	strh.w	r3, [sp, #22]
 8003932:	f8bd 304c 	ldrh.w	r3, [sp, #76]	; 0x4c
 8003936:	f8ad 3018 	strh.w	r3, [sp, #24]
 800393a:	f8bd 3050 	ldrh.w	r3, [sp, #80]	; 0x50
 800393e:	f8ad 301a 	strh.w	r3, [sp, #26]
 8003942:	f8bd 3054 	ldrh.w	r3, [sp, #84]	; 0x54
 8003946:	f8ad 301c 	strh.w	r3, [sp, #28]
 800394a:	f8bd 3058 	ldrh.w	r3, [sp, #88]	; 0x58
 800394e:	f8ad 301e 	strh.w	r3, [sp, #30]
 8003952:	233f      	movs	r3, #63	; 0x3f
 8003954:	f8ad 3020 	strh.w	r3, [sp, #32]
 8003958:	239c      	movs	r3, #156	; 0x9c
 800395a:	f8ad 3022 	strh.w	r3, [sp, #34]	; 0x22
 800395e:	ab02      	add	r3, sp, #8
 8003960:	930a      	str	r3, [sp, #40]	; 0x28
 8003962:	2318      	movs	r3, #24
 8003964:	930b      	str	r3, [sp, #44]	; 0x2c
 8003966:	230f      	movs	r3, #15
 8003968:	9309      	str	r3, [sp, #36]	; 0x24
 800396a:	f10d 0307 	add.w	r3, sp, #7
 800396e:	930c      	str	r3, [sp, #48]	; 0x30
 8003970:	2301      	movs	r3, #1
 8003972:	930d      	str	r3, [sp, #52]	; 0x34
 8003974:	2100      	movs	r1, #0
 8003976:	a808      	add	r0, sp, #32
 8003978:	f000 fa56 	bl	8003e28 <hci_send_req>
 800397c:	2800      	cmp	r0, #0
 800397e:	bfac      	ite	ge
 8003980:	f89d 0007 	ldrbge.w	r0, [sp, #7]
 8003984:	20ff      	movlt	r0, #255	; 0xff
 8003986:	b00f      	add	sp, #60	; 0x3c
 8003988:	f85d fb04 	ldr.w	pc, [sp], #4

0800398c <aci_gatt_init>:
 800398c:	b500      	push	{lr}
 800398e:	b089      	sub	sp, #36	; 0x24
 8003990:	2100      	movs	r1, #0
 8003992:	9103      	str	r1, [sp, #12]
 8003994:	9104      	str	r1, [sp, #16]
 8003996:	9105      	str	r1, [sp, #20]
 8003998:	233f      	movs	r3, #63	; 0x3f
 800399a:	f8ad 3008 	strh.w	r3, [sp, #8]
 800399e:	f240 1301 	movw	r3, #257	; 0x101
 80039a2:	f8ad 300a 	strh.w	r3, [sp, #10]
 80039a6:	f10d 0307 	add.w	r3, sp, #7
 80039aa:	9306      	str	r3, [sp, #24]
 80039ac:	2301      	movs	r3, #1
 80039ae:	9307      	str	r3, [sp, #28]
 80039b0:	a802      	add	r0, sp, #8
 80039b2:	f000 fa39 	bl	8003e28 <hci_send_req>
 80039b6:	2800      	cmp	r0, #0
 80039b8:	bfac      	ite	ge
 80039ba:	f89d 0007 	ldrbge.w	r0, [sp, #7]
 80039be:	20ff      	movlt	r0, #255	; 0xff
 80039c0:	b009      	add	sp, #36	; 0x24
 80039c2:	f85d fb04 	ldr.w	pc, [sp], #4

080039c6 <aci_gatt_add_serv>:
 80039c6:	b5f0      	push	{r4, r5, r6, r7, lr}
 80039c8:	b08d      	sub	sp, #52	; 0x34
 80039ca:	4617      	mov	r7, r2
 80039cc:	461e      	mov	r6, r3
 80039ce:	ad0c      	add	r5, sp, #48	; 0x30
 80039d0:	f805 0d30 	strb.w	r0, [r5, #-48]!
 80039d4:	2801      	cmp	r0, #1
 80039d6:	bf0c      	ite	eq
 80039d8:	2402      	moveq	r4, #2
 80039da:	2410      	movne	r4, #16
 80039dc:	4622      	mov	r2, r4
 80039de:	f10d 0001 	add.w	r0, sp, #1
 80039e2:	f000 fbe5 	bl	80041b0 <memcpy>
 80039e6:	ab0c      	add	r3, sp, #48	; 0x30
 80039e8:	4423      	add	r3, r4
 80039ea:	f803 7c2f 	strb.w	r7, [r3, #-47]
 80039ee:	ab0c      	add	r3, sp, #48	; 0x30
 80039f0:	4423      	add	r3, r4
 80039f2:	f803 6c2e 	strb.w	r6, [r3, #-46]
 80039f6:	ab05      	add	r3, sp, #20
 80039f8:	2100      	movs	r1, #0
 80039fa:	f8ad 1014 	strh.w	r1, [sp, #20]
 80039fe:	f88d 1016 	strb.w	r1, [sp, #22]
 8003a02:	9107      	str	r1, [sp, #28]
 8003a04:	223f      	movs	r2, #63	; 0x3f
 8003a06:	f8ad 2018 	strh.w	r2, [sp, #24]
 8003a0a:	f44f 7281 	mov.w	r2, #258	; 0x102
 8003a0e:	f8ad 201a 	strh.w	r2, [sp, #26]
 8003a12:	9508      	str	r5, [sp, #32]
 8003a14:	3403      	adds	r4, #3
 8003a16:	9409      	str	r4, [sp, #36]	; 0x24
 8003a18:	930a      	str	r3, [sp, #40]	; 0x28
 8003a1a:	2303      	movs	r3, #3
 8003a1c:	930b      	str	r3, [sp, #44]	; 0x2c
 8003a1e:	a806      	add	r0, sp, #24
 8003a20:	f000 fa02 	bl	8003e28 <hci_send_req>
 8003a24:	2800      	cmp	r0, #0
 8003a26:	db09      	blt.n	8003a3c <aci_gatt_add_serv+0x76>
 8003a28:	f89d 0014 	ldrb.w	r0, [sp, #20]
 8003a2c:	b920      	cbnz	r0, 8003a38 <aci_gatt_add_serv+0x72>
 8003a2e:	9b05      	ldr	r3, [sp, #20]
 8003a30:	f3c3 230f 	ubfx	r3, r3, #8, #16
 8003a34:	9a12      	ldr	r2, [sp, #72]	; 0x48
 8003a36:	8013      	strh	r3, [r2, #0]
 8003a38:	b00d      	add	sp, #52	; 0x34
 8003a3a:	bdf0      	pop	{r4, r5, r6, r7, pc}
 8003a3c:	20ff      	movs	r0, #255	; 0xff
 8003a3e:	e7fb      	b.n	8003a38 <aci_gatt_add_serv+0x72>

08003a40 <aci_gatt_add_char>:
 8003a40:	b570      	push	{r4, r5, r6, lr}
 8003a42:	b08e      	sub	sp, #56	; 0x38
 8003a44:	4616      	mov	r6, r2
 8003a46:	461d      	mov	r5, r3
 8003a48:	f8ad 0000 	strh.w	r0, [sp]
 8003a4c:	f88d 1002 	strb.w	r1, [sp, #2]
 8003a50:	2901      	cmp	r1, #1
 8003a52:	bf0c      	ite	eq
 8003a54:	2402      	moveq	r4, #2
 8003a56:	2410      	movne	r4, #16
 8003a58:	4622      	mov	r2, r4
 8003a5a:	4631      	mov	r1, r6
 8003a5c:	f10d 0003 	add.w	r0, sp, #3
 8003a60:	f000 fba6 	bl	80041b0 <memcpy>
 8003a64:	ab0e      	add	r3, sp, #56	; 0x38
 8003a66:	4423      	add	r3, r4
 8003a68:	f803 5c35 	strb.w	r5, [r3, #-53]
 8003a6c:	ab0e      	add	r3, sp, #56	; 0x38
 8003a6e:	4423      	add	r3, r4
 8003a70:	f89d 2048 	ldrb.w	r2, [sp, #72]	; 0x48
 8003a74:	f803 2c34 	strb.w	r2, [r3, #-52]
 8003a78:	ab0e      	add	r3, sp, #56	; 0x38
 8003a7a:	4423      	add	r3, r4
 8003a7c:	f89d 204c 	ldrb.w	r2, [sp, #76]	; 0x4c
 8003a80:	f803 2c33 	strb.w	r2, [r3, #-51]
 8003a84:	ab0e      	add	r3, sp, #56	; 0x38
 8003a86:	4423      	add	r3, r4
 8003a88:	f89d 2050 	ldrb.w	r2, [sp, #80]	; 0x50
 8003a8c:	f803 2c32 	strb.w	r2, [r3, #-50]
 8003a90:	ab0e      	add	r3, sp, #56	; 0x38
 8003a92:	4423      	add	r3, r4
 8003a94:	f89d 2054 	ldrb.w	r2, [sp, #84]	; 0x54
 8003a98:	f803 2c31 	strb.w	r2, [r3, #-49]
 8003a9c:	ab0e      	add	r3, sp, #56	; 0x38
 8003a9e:	4423      	add	r3, r4
 8003aa0:	f89d 2058 	ldrb.w	r2, [sp, #88]	; 0x58
 8003aa4:	f803 2c30 	strb.w	r2, [r3, #-48]
 8003aa8:	ab07      	add	r3, sp, #28
 8003aaa:	2100      	movs	r1, #0
 8003aac:	f8ad 101c 	strh.w	r1, [sp, #28]
 8003ab0:	f88d 101e 	strb.w	r1, [sp, #30]
 8003ab4:	9109      	str	r1, [sp, #36]	; 0x24
 8003ab6:	223f      	movs	r2, #63	; 0x3f
 8003ab8:	f8ad 2020 	strh.w	r2, [sp, #32]
 8003abc:	f44f 7282 	mov.w	r2, #260	; 0x104
 8003ac0:	f8ad 2022 	strh.w	r2, [sp, #34]	; 0x22
 8003ac4:	f8cd d028 	str.w	sp, [sp, #40]	; 0x28
 8003ac8:	3409      	adds	r4, #9
 8003aca:	940b      	str	r4, [sp, #44]	; 0x2c
 8003acc:	930c      	str	r3, [sp, #48]	; 0x30
 8003ace:	2303      	movs	r3, #3
 8003ad0:	930d      	str	r3, [sp, #52]	; 0x34
 8003ad2:	a808      	add	r0, sp, #32
 8003ad4:	f000 f9a8 	bl	8003e28 <hci_send_req>
 8003ad8:	2800      	cmp	r0, #0
 8003ada:	db09      	blt.n	8003af0 <aci_gatt_add_char+0xb0>
 8003adc:	f89d 001c 	ldrb.w	r0, [sp, #28]
 8003ae0:	b920      	cbnz	r0, 8003aec <aci_gatt_add_char+0xac>
 8003ae2:	9b07      	ldr	r3, [sp, #28]
 8003ae4:	f3c3 230f 	ubfx	r3, r3, #8, #16
 8003ae8:	9a17      	ldr	r2, [sp, #92]	; 0x5c
 8003aea:	8013      	strh	r3, [r2, #0]
 8003aec:	b00e      	add	sp, #56	; 0x38
 8003aee:	bd70      	pop	{r4, r5, r6, pc}
 8003af0:	20ff      	movs	r0, #255	; 0xff
 8003af2:	e7fb      	b.n	8003aec <aci_gatt_add_char+0xac>

08003af4 <aci_gatt_update_char_value>:
 8003af4:	b510      	push	{r4, lr}
 8003af6:	b0a8      	sub	sp, #160	; 0xa0
 8003af8:	1d9c      	adds	r4, r3, #6
 8003afa:	2c80      	cmp	r4, #128	; 0x80
 8003afc:	dc29      	bgt.n	8003b52 <aci_gatt_update_char_value+0x5e>
 8003afe:	461c      	mov	r4, r3
 8003b00:	f8ad 0004 	strh.w	r0, [sp, #4]
 8003b04:	f8ad 1006 	strh.w	r1, [sp, #6]
 8003b08:	f88d 2008 	strb.w	r2, [sp, #8]
 8003b0c:	f88d 3009 	strb.w	r3, [sp, #9]
 8003b10:	461a      	mov	r2, r3
 8003b12:	992a      	ldr	r1, [sp, #168]	; 0xa8
 8003b14:	f10d 000a 	add.w	r0, sp, #10
 8003b18:	f000 fb4a 	bl	80041b0 <memcpy>
 8003b1c:	2100      	movs	r1, #0
 8003b1e:	9123      	str	r1, [sp, #140]	; 0x8c
 8003b20:	233f      	movs	r3, #63	; 0x3f
 8003b22:	f8ad 3088 	strh.w	r3, [sp, #136]	; 0x88
 8003b26:	f44f 7383 	mov.w	r3, #262	; 0x106
 8003b2a:	f8ad 308a 	strh.w	r3, [sp, #138]	; 0x8a
 8003b2e:	ab01      	add	r3, sp, #4
 8003b30:	9324      	str	r3, [sp, #144]	; 0x90
 8003b32:	1da3      	adds	r3, r4, #6
 8003b34:	b2db      	uxtb	r3, r3
 8003b36:	9325      	str	r3, [sp, #148]	; 0x94
 8003b38:	f10d 0387 	add.w	r3, sp, #135	; 0x87
 8003b3c:	9326      	str	r3, [sp, #152]	; 0x98
 8003b3e:	2301      	movs	r3, #1
 8003b40:	9327      	str	r3, [sp, #156]	; 0x9c
 8003b42:	a822      	add	r0, sp, #136	; 0x88
 8003b44:	f000 f970 	bl	8003e28 <hci_send_req>
 8003b48:	2800      	cmp	r0, #0
 8003b4a:	db05      	blt.n	8003b58 <aci_gatt_update_char_value+0x64>
 8003b4c:	f89d 0087 	ldrb.w	r0, [sp, #135]	; 0x87
 8003b50:	e000      	b.n	8003b54 <aci_gatt_update_char_value+0x60>
 8003b52:	2042      	movs	r0, #66	; 0x42
 8003b54:	b028      	add	sp, #160	; 0xa0
 8003b56:	bd10      	pop	{r4, pc}
 8003b58:	20ff      	movs	r0, #255	; 0xff
 8003b5a:	e7fb      	b.n	8003b54 <aci_gatt_update_char_value+0x60>

08003b5c <aci_gatt_write_charac_value>:
 8003b5c:	b510      	push	{r4, lr}
 8003b5e:	b0a8      	sub	sp, #160	; 0xa0
 8003b60:	1d54      	adds	r4, r2, #5
 8003b62:	2c80      	cmp	r4, #128	; 0x80
 8003b64:	dc27      	bgt.n	8003bb6 <aci_gatt_write_charac_value+0x5a>
 8003b66:	4614      	mov	r4, r2
 8003b68:	f8ad 0004 	strh.w	r0, [sp, #4]
 8003b6c:	f8ad 1006 	strh.w	r1, [sp, #6]
 8003b70:	f88d 2008 	strb.w	r2, [sp, #8]
 8003b74:	4619      	mov	r1, r3
 8003b76:	f10d 0009 	add.w	r0, sp, #9
 8003b7a:	f000 fb19 	bl	80041b0 <memcpy>
 8003b7e:	233f      	movs	r3, #63	; 0x3f
 8003b80:	f8ad 3088 	strh.w	r3, [sp, #136]	; 0x88
 8003b84:	f44f 738e 	mov.w	r3, #284	; 0x11c
 8003b88:	f8ad 308a 	strh.w	r3, [sp, #138]	; 0x8a
 8003b8c:	ab01      	add	r3, sp, #4
 8003b8e:	9324      	str	r3, [sp, #144]	; 0x90
 8003b90:	1d62      	adds	r2, r4, #5
 8003b92:	b2d2      	uxtb	r2, r2
 8003b94:	9225      	str	r2, [sp, #148]	; 0x94
 8003b96:	230f      	movs	r3, #15
 8003b98:	9323      	str	r3, [sp, #140]	; 0x8c
 8003b9a:	f10d 0387 	add.w	r3, sp, #135	; 0x87
 8003b9e:	9326      	str	r3, [sp, #152]	; 0x98
 8003ba0:	2301      	movs	r3, #1
 8003ba2:	9327      	str	r3, [sp, #156]	; 0x9c
 8003ba4:	2100      	movs	r1, #0
 8003ba6:	a822      	add	r0, sp, #136	; 0x88
 8003ba8:	f000 f93e 	bl	8003e28 <hci_send_req>
 8003bac:	2800      	cmp	r0, #0
 8003bae:	db05      	blt.n	8003bbc <aci_gatt_write_charac_value+0x60>
 8003bb0:	f89d 0087 	ldrb.w	r0, [sp, #135]	; 0x87
 8003bb4:	e000      	b.n	8003bb8 <aci_gatt_write_charac_value+0x5c>
 8003bb6:	2042      	movs	r0, #66	; 0x42
 8003bb8:	b028      	add	sp, #160	; 0xa0
 8003bba:	bd10      	pop	{r4, pc}
 8003bbc:	20ff      	movs	r0, #255	; 0xff
 8003bbe:	e7fb      	b.n	8003bb8 <aci_gatt_write_charac_value+0x5c>

08003bc0 <aci_gatt_allow_read>:
 8003bc0:	b500      	push	{lr}
 8003bc2:	b089      	sub	sp, #36	; 0x24
 8003bc4:	f8ad 0004 	strh.w	r0, [sp, #4]
 8003bc8:	2100      	movs	r1, #0
 8003bca:	9103      	str	r1, [sp, #12]
 8003bcc:	233f      	movs	r3, #63	; 0x3f
 8003bce:	f8ad 3008 	strh.w	r3, [sp, #8]
 8003bd2:	f240 1327 	movw	r3, #295	; 0x127
 8003bd6:	f8ad 300a 	strh.w	r3, [sp, #10]
 8003bda:	ab01      	add	r3, sp, #4
 8003bdc:	9304      	str	r3, [sp, #16]
 8003bde:	2302      	movs	r3, #2
 8003be0:	9305      	str	r3, [sp, #20]
 8003be2:	f10d 0303 	add.w	r3, sp, #3
 8003be6:	9306      	str	r3, [sp, #24]
 8003be8:	2301      	movs	r3, #1
 8003bea:	9307      	str	r3, [sp, #28]
 8003bec:	a802      	add	r0, sp, #8
 8003bee:	f000 f91b 	bl	8003e28 <hci_send_req>
 8003bf2:	2800      	cmp	r0, #0
 8003bf4:	bfac      	ite	ge
 8003bf6:	f89d 0003 	ldrbge.w	r0, [sp, #3]
 8003bfa:	20ff      	movlt	r0, #255	; 0xff
 8003bfc:	b009      	add	sp, #36	; 0x24
 8003bfe:	f85d fb04 	ldr.w	pc, [sp], #4

08003c02 <aci_hal_write_config_data>:
 8003c02:	1c8b      	adds	r3, r1, #2
 8003c04:	2b80      	cmp	r3, #128	; 0x80
 8003c06:	dc28      	bgt.n	8003c5a <aci_hal_write_config_data+0x58>
 8003c08:	b510      	push	{r4, lr}
 8003c0a:	b0a8      	sub	sp, #160	; 0xa0
 8003c0c:	4613      	mov	r3, r2
 8003c0e:	460c      	mov	r4, r1
 8003c10:	f88d 0004 	strb.w	r0, [sp, #4]
 8003c14:	f88d 1005 	strb.w	r1, [sp, #5]
 8003c18:	460a      	mov	r2, r1
 8003c1a:	4619      	mov	r1, r3
 8003c1c:	f10d 0006 	add.w	r0, sp, #6
 8003c20:	f000 fac6 	bl	80041b0 <memcpy>
 8003c24:	2100      	movs	r1, #0
 8003c26:	9123      	str	r1, [sp, #140]	; 0x8c
 8003c28:	233f      	movs	r3, #63	; 0x3f
 8003c2a:	f8ad 3088 	strh.w	r3, [sp, #136]	; 0x88
 8003c2e:	230c      	movs	r3, #12
 8003c30:	f8ad 308a 	strh.w	r3, [sp, #138]	; 0x8a
 8003c34:	ab01      	add	r3, sp, #4
 8003c36:	9324      	str	r3, [sp, #144]	; 0x90
 8003c38:	3402      	adds	r4, #2
 8003c3a:	b2e4      	uxtb	r4, r4
 8003c3c:	9425      	str	r4, [sp, #148]	; 0x94
 8003c3e:	f10d 0387 	add.w	r3, sp, #135	; 0x87
 8003c42:	9326      	str	r3, [sp, #152]	; 0x98
 8003c44:	2301      	movs	r3, #1
 8003c46:	9327      	str	r3, [sp, #156]	; 0x9c
 8003c48:	a822      	add	r0, sp, #136	; 0x88
 8003c4a:	f000 f8ed 	bl	8003e28 <hci_send_req>
 8003c4e:	2800      	cmp	r0, #0
 8003c50:	db05      	blt.n	8003c5e <aci_hal_write_config_data+0x5c>
 8003c52:	f89d 0087 	ldrb.w	r0, [sp, #135]	; 0x87
 8003c56:	b028      	add	sp, #160	; 0xa0
 8003c58:	bd10      	pop	{r4, pc}
 8003c5a:	2042      	movs	r0, #66	; 0x42
 8003c5c:	4770      	bx	lr
 8003c5e:	20ff      	movs	r0, #255	; 0xff
 8003c60:	e7f9      	b.n	8003c56 <aci_hal_write_config_data+0x54>

08003c62 <aci_hal_set_tx_power_level>:
 8003c62:	b500      	push	{lr}
 8003c64:	b089      	sub	sp, #36	; 0x24
 8003c66:	f88d 0004 	strb.w	r0, [sp, #4]
 8003c6a:	f88d 1005 	strb.w	r1, [sp, #5]
 8003c6e:	2100      	movs	r1, #0
 8003c70:	9103      	str	r1, [sp, #12]
 8003c72:	233f      	movs	r3, #63	; 0x3f
 8003c74:	f8ad 3008 	strh.w	r3, [sp, #8]
 8003c78:	230f      	movs	r3, #15
 8003c7a:	f8ad 300a 	strh.w	r3, [sp, #10]
 8003c7e:	ab01      	add	r3, sp, #4
 8003c80:	9304      	str	r3, [sp, #16]
 8003c82:	2302      	movs	r3, #2
 8003c84:	9305      	str	r3, [sp, #20]
 8003c86:	f10d 0303 	add.w	r3, sp, #3
 8003c8a:	9306      	str	r3, [sp, #24]
 8003c8c:	2301      	movs	r3, #1
 8003c8e:	9307      	str	r3, [sp, #28]
 8003c90:	a802      	add	r0, sp, #8
 8003c92:	f000 f8c9 	bl	8003e28 <hci_send_req>
 8003c96:	2800      	cmp	r0, #0
 8003c98:	bfac      	ite	ge
 8003c9a:	f89d 0003 	ldrbge.w	r0, [sp, #3]
 8003c9e:	20ff      	movlt	r0, #255	; 0xff
 8003ca0:	b009      	add	sp, #36	; 0x24
 8003ca2:	f85d fb04 	ldr.w	pc, [sp], #4

08003ca6 <getBlueNRGVersion>:
 8003ca6:	b530      	push	{r4, r5, lr}
 8003ca8:	b085      	sub	sp, #20
 8003caa:	4605      	mov	r5, r0
 8003cac:	460c      	mov	r4, r1
 8003cae:	ab02      	add	r3, sp, #8
 8003cb0:	9300      	str	r3, [sp, #0]
 8003cb2:	f10d 030a 	add.w	r3, sp, #10
 8003cb6:	f10d 020e 	add.w	r2, sp, #14
 8003cba:	a903      	add	r1, sp, #12
 8003cbc:	f10d 000f 	add.w	r0, sp, #15
 8003cc0:	f000 f82d 	bl	8003d1e <hci_le_read_local_version>
 8003cc4:	b2c0      	uxtb	r0, r0
 8003cc6:	b968      	cbnz	r0, 8003ce4 <getBlueNRGVersion+0x3e>
 8003cc8:	f8bd 100c 	ldrh.w	r1, [sp, #12]
 8003ccc:	0a0b      	lsrs	r3, r1, #8
 8003cce:	702b      	strb	r3, [r5, #0]
 8003cd0:	f8bd 2008 	ldrh.w	r2, [sp, #8]
 8003cd4:	f002 030f 	and.w	r3, r2, #15
 8003cd8:	ea43 2301 	orr.w	r3, r3, r1, lsl #8
 8003cdc:	f002 02f0 	and.w	r2, r2, #240	; 0xf0
 8003ce0:	4313      	orrs	r3, r2
 8003ce2:	8023      	strh	r3, [r4, #0]
 8003ce4:	b005      	add	sp, #20
 8003ce6:	bd30      	pop	{r4, r5, pc}

08003ce8 <hci_reset>:
 8003ce8:	b500      	push	{lr}
 8003cea:	b089      	sub	sp, #36	; 0x24
 8003cec:	2100      	movs	r1, #0
 8003cee:	9103      	str	r1, [sp, #12]
 8003cf0:	9104      	str	r1, [sp, #16]
 8003cf2:	9105      	str	r1, [sp, #20]
 8003cf4:	2303      	movs	r3, #3
 8003cf6:	f8ad 3008 	strh.w	r3, [sp, #8]
 8003cfa:	f8ad 300a 	strh.w	r3, [sp, #10]
 8003cfe:	f10d 0307 	add.w	r3, sp, #7
 8003d02:	9306      	str	r3, [sp, #24]
 8003d04:	2301      	movs	r3, #1
 8003d06:	9307      	str	r3, [sp, #28]
 8003d08:	a802      	add	r0, sp, #8
 8003d0a:	f000 f88d 	bl	8003e28 <hci_send_req>
 8003d0e:	2800      	cmp	r0, #0
 8003d10:	bfac      	ite	ge
 8003d12:	f89d 0007 	ldrbge.w	r0, [sp, #7]
 8003d16:	20ff      	movlt	r0, #255	; 0xff
 8003d18:	b009      	add	sp, #36	; 0x24
 8003d1a:	f85d fb04 	ldr.w	pc, [sp], #4

08003d1e <hci_le_read_local_version>:
 8003d1e:	b5f0      	push	{r4, r5, r6, r7, lr}
 8003d20:	b08b      	sub	sp, #44	; 0x2c
 8003d22:	4607      	mov	r7, r0
 8003d24:	460e      	mov	r6, r1
 8003d26:	4615      	mov	r5, r2
 8003d28:	461c      	mov	r4, r3
 8003d2a:	ab01      	add	r3, sp, #4
 8003d2c:	2100      	movs	r1, #0
 8003d2e:	9101      	str	r1, [sp, #4]
 8003d30:	9102      	str	r1, [sp, #8]
 8003d32:	f88d 100c 	strb.w	r1, [sp, #12]
 8003d36:	9105      	str	r1, [sp, #20]
 8003d38:	9106      	str	r1, [sp, #24]
 8003d3a:	9107      	str	r1, [sp, #28]
 8003d3c:	2204      	movs	r2, #4
 8003d3e:	f8ad 2010 	strh.w	r2, [sp, #16]
 8003d42:	2201      	movs	r2, #1
 8003d44:	f8ad 2012 	strh.w	r2, [sp, #18]
 8003d48:	9308      	str	r3, [sp, #32]
 8003d4a:	2309      	movs	r3, #9
 8003d4c:	9309      	str	r3, [sp, #36]	; 0x24
 8003d4e:	a804      	add	r0, sp, #16
 8003d50:	f000 f86a 	bl	8003e28 <hci_send_req>
 8003d54:	2800      	cmp	r0, #0
 8003d56:	db19      	blt.n	8003d8c <hci_le_read_local_version+0x6e>
 8003d58:	f89d 0004 	ldrb.w	r0, [sp, #4]
 8003d5c:	b9a0      	cbnz	r0, 8003d88 <hci_le_read_local_version+0x6a>
 8003d5e:	f89d 3005 	ldrb.w	r3, [sp, #5]
 8003d62:	703b      	strb	r3, [r7, #0]
 8003d64:	f8bd 3006 	ldrh.w	r3, [sp, #6]
 8003d68:	8033      	strh	r3, [r6, #0]
 8003d6a:	f89d 3008 	ldrb.w	r3, [sp, #8]
 8003d6e:	702b      	strb	r3, [r5, #0]
 8003d70:	9b02      	ldr	r3, [sp, #8]
 8003d72:	f3c3 230f 	ubfx	r3, r3, #8, #16
 8003d76:	8023      	strh	r3, [r4, #0]
 8003d78:	f89d 300b 	ldrb.w	r3, [sp, #11]
 8003d7c:	f89d 200c 	ldrb.w	r2, [sp, #12]
 8003d80:	ea43 2302 	orr.w	r3, r3, r2, lsl #8
 8003d84:	9a10      	ldr	r2, [sp, #64]	; 0x40
 8003d86:	8013      	strh	r3, [r2, #0]
 8003d88:	b00b      	add	sp, #44	; 0x2c
 8003d8a:	bdf0      	pop	{r4, r5, r6, r7, pc}
 8003d8c:	20ff      	movs	r0, #255	; 0xff
 8003d8e:	e7fb      	b.n	8003d88 <hci_le_read_local_version+0x6a>

08003d90 <move_list>:
 8003d90:	b530      	push	{r4, r5, lr}
 8003d92:	b083      	sub	sp, #12
 8003d94:	4605      	mov	r5, r0
 8003d96:	460c      	mov	r4, r1
 8003d98:	e007      	b.n	8003daa <move_list+0x1a>
 8003d9a:	a901      	add	r1, sp, #4
 8003d9c:	4620      	mov	r0, r4
 8003d9e:	f000 f9b5 	bl	800410c <list_remove_tail>
 8003da2:	9901      	ldr	r1, [sp, #4]
 8003da4:	4628      	mov	r0, r5
 8003da6:	f000 f97b 	bl	80040a0 <list_insert_head>
 8003daa:	4620      	mov	r0, r4
 8003dac:	f000 f96d 	bl	800408a <list_is_empty>
 8003db0:	2800      	cmp	r0, #0
 8003db2:	d0f2      	beq.n	8003d9a <move_list+0xa>
 8003db4:	b003      	add	sp, #12
 8003db6:	bd30      	pop	{r4, r5, pc}

08003db8 <hci_init>:
 8003db8:	b570      	push	{r4, r5, r6, lr}
 8003dba:	b108      	cbz	r0, 8003dc0 <hci_init+0x8>
 8003dbc:	4a0f      	ldr	r2, [pc, #60]	; (8003dfc <hci_init+0x44>)
 8003dbe:	61d0      	str	r0, [r2, #28]
 8003dc0:	f7fd f990 	bl	80010e4 <hci_tl_lowlevel_init>
 8003dc4:	480e      	ldr	r0, [pc, #56]	; (8003e00 <hci_init+0x48>)
 8003dc6:	f000 f95d 	bl	8004084 <list_init_head>
 8003dca:	480e      	ldr	r0, [pc, #56]	; (8003e04 <hci_init+0x4c>)
 8003dcc:	f000 f95a 	bl	8004084 <list_init_head>
 8003dd0:	4c0d      	ldr	r4, [pc, #52]	; (8003e08 <hci_init+0x50>)
 8003dd2:	f504 762f 	add.w	r6, r4, #700	; 0x2bc
 8003dd6:	4d0a      	ldr	r5, [pc, #40]	; (8003e00 <hci_init+0x48>)
 8003dd8:	4621      	mov	r1, r4
 8003dda:	4628      	mov	r0, r5
 8003ddc:	f000 f96c 	bl	80040b8 <list_insert_tail>
 8003de0:	348c      	adds	r4, #140	; 0x8c
 8003de2:	42b4      	cmp	r4, r6
 8003de4:	d1f8      	bne.n	8003dd8 <hci_init+0x20>
 8003de6:	4b05      	ldr	r3, [pc, #20]	; (8003dfc <hci_init+0x44>)
 8003de8:	681b      	ldr	r3, [r3, #0]
 8003dea:	b10b      	cbz	r3, 8003df0 <hci_init+0x38>
 8003dec:	2000      	movs	r0, #0
 8003dee:	4798      	blx	r3
 8003df0:	4b02      	ldr	r3, [pc, #8]	; (8003dfc <hci_init+0x44>)
 8003df2:	689b      	ldr	r3, [r3, #8]
 8003df4:	b103      	cbz	r3, 8003df8 <hci_init+0x40>
 8003df6:	4798      	blx	r3
 8003df8:	bd70      	pop	{r4, r5, r6, pc}
 8003dfa:	bf00      	nop
 8003dfc:	20000390 	.word	0x20000390
 8003e00:	200008f8 	.word	0x200008f8
 8003e04:	20000900 	.word	0x20000900
 8003e08:	200003b0 	.word	0x200003b0

08003e0c <hci_register_io_bus>:
 8003e0c:	4b05      	ldr	r3, [pc, #20]	; (8003e24 <hci_register_io_bus+0x18>)
 8003e0e:	6802      	ldr	r2, [r0, #0]
 8003e10:	601a      	str	r2, [r3, #0]
 8003e12:	68c2      	ldr	r2, [r0, #12]
 8003e14:	60da      	str	r2, [r3, #12]
 8003e16:	6902      	ldr	r2, [r0, #16]
 8003e18:	611a      	str	r2, [r3, #16]
 8003e1a:	6982      	ldr	r2, [r0, #24]
 8003e1c:	619a      	str	r2, [r3, #24]
 8003e1e:	6882      	ldr	r2, [r0, #8]
 8003e20:	609a      	str	r2, [r3, #8]
 8003e22:	4770      	bx	lr
 8003e24:	20000390 	.word	0x20000390

08003e28 <hci_send_req>:
 8003e28:	e92d 43f0 	stmdb	sp!, {r4, r5, r6, r7, r8, r9, lr}
 8003e2c:	b0a5      	sub	sp, #148	; 0x94
 8003e2e:	4605      	mov	r5, r0
 8003e30:	4688      	mov	r8, r1
 8003e32:	8847      	ldrh	r7, [r0, #2]
 8003e34:	f8b0 9000 	ldrh.w	r9, [r0]
 8003e38:	2300      	movs	r3, #0
 8003e3a:	9323      	str	r3, [sp, #140]	; 0x8c
 8003e3c:	a821      	add	r0, sp, #132	; 0x84
 8003e3e:	f000 f921 	bl	8004084 <list_init_head>
 8003e42:	4c5c      	ldr	r4, [pc, #368]	; (8003fb4 <hci_send_req+0x18c>)
 8003e44:	4e5c      	ldr	r6, [pc, #368]	; (8003fb8 <hci_send_req+0x190>)
 8003e46:	e007      	b.n	8003e58 <hci_send_req+0x30>
 8003e48:	a901      	add	r1, sp, #4
 8003e4a:	4630      	mov	r0, r6
 8003e4c:	f000 f94c 	bl	80040e8 <list_remove_head>
 8003e50:	9901      	ldr	r1, [sp, #4]
 8003e52:	4620      	mov	r0, r4
 8003e54:	f000 f930 	bl	80040b8 <list_insert_tail>
 8003e58:	4620      	mov	r0, r4
 8003e5a:	f000 f969 	bl	8004130 <list_get_size>
 8003e5e:	2801      	cmp	r0, #1
 8003e60:	ddf2      	ble.n	8003e48 <hci_send_req+0x20>
 8003e62:	7b2c      	ldrb	r4, [r5, #12]
 8003e64:	886b      	ldrh	r3, [r5, #2]
 8003e66:	f3c3 0309 	ubfx	r3, r3, #0, #10
 8003e6a:	882a      	ldrh	r2, [r5, #0]
 8003e6c:	ea43 2382 	orr.w	r3, r3, r2, lsl #10
 8003e70:	2201      	movs	r2, #1
 8003e72:	f88d 2004 	strb.w	r2, [sp, #4]
 8003e76:	f8ad 3005 	strh.w	r3, [sp, #5]
 8003e7a:	f88d 4007 	strb.w	r4, [sp, #7]
 8003e7e:	4622      	mov	r2, r4
 8003e80:	68a9      	ldr	r1, [r5, #8]
 8003e82:	a802      	add	r0, sp, #8
 8003e84:	f000 f994 	bl	80041b0 <memcpy>
 8003e88:	4b4c      	ldr	r3, [pc, #304]	; (8003fbc <hci_send_req+0x194>)
 8003e8a:	691b      	ldr	r3, [r3, #16]
 8003e8c:	b113      	cbz	r3, 8003e94 <hci_send_req+0x6c>
 8003e8e:	1d21      	adds	r1, r4, #4
 8003e90:	a801      	add	r0, sp, #4
 8003e92:	4798      	blx	r3
 8003e94:	f1b8 0f00 	cmp.w	r8, #0
 8003e98:	f040 808a 	bne.w	8003fb0 <hci_send_req+0x188>
 8003e9c:	f3c7 0709 	ubfx	r7, r7, #0, #10
 8003ea0:	ea47 2989 	orr.w	r9, r7, r9, lsl #10
 8003ea4:	fa1f f989 	uxth.w	r9, r9
 8003ea8:	4e43      	ldr	r6, [pc, #268]	; (8003fb8 <hci_send_req+0x190>)
 8003eaa:	4f42      	ldr	r7, [pc, #264]	; (8003fb4 <hci_send_req+0x18c>)
 8003eac:	f7fd ff00 	bl	8001cb0 <HAL_GetTick>
 8003eb0:	4604      	mov	r4, r0
 8003eb2:	f7fd fefd 	bl	8001cb0 <HAL_GetTick>
 8003eb6:	1b00      	subs	r0, r0, r4
 8003eb8:	f5b0 7f7a 	cmp.w	r0, #1000	; 0x3e8
 8003ebc:	d84e      	bhi.n	8003f5c <hci_send_req+0x134>
 8003ebe:	4630      	mov	r0, r6
 8003ec0:	f000 f8e3 	bl	800408a <list_is_empty>
 8003ec4:	2800      	cmp	r0, #0
 8003ec6:	d1f4      	bne.n	8003eb2 <hci_send_req+0x8a>
 8003ec8:	a923      	add	r1, sp, #140	; 0x8c
 8003eca:	4630      	mov	r0, r6
 8003ecc:	f000 f90c 	bl	80040e8 <list_remove_head>
 8003ed0:	9923      	ldr	r1, [sp, #140]	; 0x8c
 8003ed2:	7a0b      	ldrb	r3, [r1, #8]
 8003ed4:	2b04      	cmp	r3, #4
 8003ed6:	d10e      	bne.n	8003ef6 <hci_send_req+0xce>
 8003ed8:	f891 3088 	ldrb.w	r3, [r1, #136]	; 0x88
 8003edc:	3b03      	subs	r3, #3
 8003ede:	7a4a      	ldrb	r2, [r1, #9]
 8003ee0:	2a0f      	cmp	r2, #15
 8003ee2:	d031      	beq.n	8003f48 <hci_send_req+0x120>
 8003ee4:	d917      	bls.n	8003f16 <hci_send_req+0xee>
 8003ee6:	2a10      	cmp	r2, #16
 8003ee8:	d038      	beq.n	8003f5c <hci_send_req+0x134>
 8003eea:	2a3e      	cmp	r2, #62	; 0x3e
 8003eec:	d103      	bne.n	8003ef6 <hci_send_req+0xce>
 8003eee:	7ac8      	ldrb	r0, [r1, #11]
 8003ef0:	686a      	ldr	r2, [r5, #4]
 8003ef2:	4290      	cmp	r0, r2
 8003ef4:	d04a      	beq.n	8003f8c <hci_send_req+0x164>
 8003ef6:	4638      	mov	r0, r7
 8003ef8:	f000 f8c7 	bl	800408a <list_is_empty>
 8003efc:	b120      	cbz	r0, 8003f08 <hci_send_req+0xe0>
 8003efe:	4630      	mov	r0, r6
 8003f00:	f000 f8c3 	bl	800408a <list_is_empty>
 8003f04:	2800      	cmp	r0, #0
 8003f06:	d14c      	bne.n	8003fa2 <hci_send_req+0x17a>
 8003f08:	9923      	ldr	r1, [sp, #140]	; 0x8c
 8003f0a:	a821      	add	r0, sp, #132	; 0x84
 8003f0c:	f000 f8d4 	bl	80040b8 <list_insert_tail>
 8003f10:	2300      	movs	r3, #0
 8003f12:	9323      	str	r3, [sp, #140]	; 0x8c
 8003f14:	e7ca      	b.n	8003eac <hci_send_req+0x84>
 8003f16:	2a0e      	cmp	r2, #14
 8003f18:	d1ed      	bne.n	8003ef6 <hci_send_req+0xce>
 8003f1a:	898a      	ldrh	r2, [r1, #12]
 8003f1c:	454a      	cmp	r2, r9
 8003f1e:	d11d      	bne.n	8003f5c <hci_send_req+0x134>
 8003f20:	1eda      	subs	r2, r3, #3
 8003f22:	696b      	ldr	r3, [r5, #20]
 8003f24:	429a      	cmp	r2, r3
 8003f26:	bf28      	it	cs
 8003f28:	461a      	movcs	r2, r3
 8003f2a:	616a      	str	r2, [r5, #20]
 8003f2c:	310e      	adds	r1, #14
 8003f2e:	6928      	ldr	r0, [r5, #16]
 8003f30:	f000 f93e 	bl	80041b0 <memcpy>
 8003f34:	9923      	ldr	r1, [sp, #140]	; 0x8c
 8003f36:	481f      	ldr	r0, [pc, #124]	; (8003fb4 <hci_send_req+0x18c>)
 8003f38:	f000 f8b2 	bl	80040a0 <list_insert_head>
 8003f3c:	a921      	add	r1, sp, #132	; 0x84
 8003f3e:	481e      	ldr	r0, [pc, #120]	; (8003fb8 <hci_send_req+0x190>)
 8003f40:	f7ff ff26 	bl	8003d90 <move_list>
 8003f44:	2000      	movs	r0, #0
 8003f46:	e014      	b.n	8003f72 <hci_send_req+0x14a>
 8003f48:	f8b1 200d 	ldrh.w	r2, [r1, #13]
 8003f4c:	454a      	cmp	r2, r9
 8003f4e:	d105      	bne.n	8003f5c <hci_send_req+0x134>
 8003f50:	686a      	ldr	r2, [r5, #4]
 8003f52:	2a0f      	cmp	r2, #15
 8003f54:	d010      	beq.n	8003f78 <hci_send_req+0x150>
 8003f56:	7acb      	ldrb	r3, [r1, #11]
 8003f58:	2b00      	cmp	r3, #0
 8003f5a:	d0cc      	beq.n	8003ef6 <hci_send_req+0xce>
 8003f5c:	9923      	ldr	r1, [sp, #140]	; 0x8c
 8003f5e:	b111      	cbz	r1, 8003f66 <hci_send_req+0x13e>
 8003f60:	4814      	ldr	r0, [pc, #80]	; (8003fb4 <hci_send_req+0x18c>)
 8003f62:	f000 f89d 	bl	80040a0 <list_insert_head>
 8003f66:	a921      	add	r1, sp, #132	; 0x84
 8003f68:	4813      	ldr	r0, [pc, #76]	; (8003fb8 <hci_send_req+0x190>)
 8003f6a:	f7ff ff11 	bl	8003d90 <move_list>
 8003f6e:	f04f 30ff 	mov.w	r0, #4294967295
 8003f72:	b025      	add	sp, #148	; 0x94
 8003f74:	e8bd 83f0 	ldmia.w	sp!, {r4, r5, r6, r7, r8, r9, pc}
 8003f78:	696a      	ldr	r2, [r5, #20]
 8003f7a:	429a      	cmp	r2, r3
 8003f7c:	bf28      	it	cs
 8003f7e:	461a      	movcs	r2, r3
 8003f80:	616a      	str	r2, [r5, #20]
 8003f82:	310b      	adds	r1, #11
 8003f84:	6928      	ldr	r0, [r5, #16]
 8003f86:	f000 f913 	bl	80041b0 <memcpy>
 8003f8a:	e7d3      	b.n	8003f34 <hci_send_req+0x10c>
 8003f8c:	3b01      	subs	r3, #1
 8003f8e:	696a      	ldr	r2, [r5, #20]
 8003f90:	429a      	cmp	r2, r3
 8003f92:	bf28      	it	cs
 8003f94:	461a      	movcs	r2, r3
 8003f96:	616a      	str	r2, [r5, #20]
 8003f98:	310c      	adds	r1, #12
 8003f9a:	6928      	ldr	r0, [r5, #16]
 8003f9c:	f000 f908 	bl	80041b0 <memcpy>
 8003fa0:	e7c8      	b.n	8003f34 <hci_send_req+0x10c>
 8003fa2:	9923      	ldr	r1, [sp, #140]	; 0x8c
 8003fa4:	4638      	mov	r0, r7
 8003fa6:	f000 f887 	bl	80040b8 <list_insert_tail>
 8003faa:	2300      	movs	r3, #0
 8003fac:	9323      	str	r3, [sp, #140]	; 0x8c
 8003fae:	e77d      	b.n	8003eac <hci_send_req+0x84>
 8003fb0:	2000      	movs	r0, #0
 8003fb2:	e7de      	b.n	8003f72 <hci_send_req+0x14a>
 8003fb4:	200008f8 	.word	0x200008f8
 8003fb8:	20000900 	.word	0x20000900
 8003fbc:	20000390 	.word	0x20000390

08003fc0 <hci_user_evt_proc>:
 8003fc0:	b570      	push	{r4, r5, r6, lr}
 8003fc2:	b082      	sub	sp, #8
 8003fc4:	2300      	movs	r3, #0
 8003fc6:	9301      	str	r3, [sp, #4]
 8003fc8:	4c0c      	ldr	r4, [pc, #48]	; (8003ffc <hci_user_evt_proc+0x3c>)
 8003fca:	4e0d      	ldr	r6, [pc, #52]	; (8004000 <hci_user_evt_proc+0x40>)
 8003fcc:	4d0d      	ldr	r5, [pc, #52]	; (8004004 <hci_user_evt_proc+0x44>)
 8003fce:	e003      	b.n	8003fd8 <hci_user_evt_proc+0x18>
 8003fd0:	9901      	ldr	r1, [sp, #4]
 8003fd2:	4628      	mov	r0, r5
 8003fd4:	f000 f870 	bl	80040b8 <list_insert_tail>
 8003fd8:	4620      	mov	r0, r4
 8003fda:	f000 f856 	bl	800408a <list_is_empty>
 8003fde:	b950      	cbnz	r0, 8003ff6 <hci_user_evt_proc+0x36>
 8003fe0:	a901      	add	r1, sp, #4
 8003fe2:	4620      	mov	r0, r4
 8003fe4:	f000 f880 	bl	80040e8 <list_remove_head>
 8003fe8:	69f3      	ldr	r3, [r6, #28]
 8003fea:	2b00      	cmp	r3, #0
 8003fec:	d0f0      	beq.n	8003fd0 <hci_user_evt_proc+0x10>
 8003fee:	9801      	ldr	r0, [sp, #4]
 8003ff0:	3008      	adds	r0, #8
 8003ff2:	4798      	blx	r3
 8003ff4:	e7ec      	b.n	8003fd0 <hci_user_evt_proc+0x10>
 8003ff6:	b002      	add	sp, #8
 8003ff8:	bd70      	pop	{r4, r5, r6, pc}
 8003ffa:	bf00      	nop
 8003ffc:	20000900 	.word	0x20000900
 8004000:	20000390 	.word	0x20000390
 8004004:	200008f8 	.word	0x200008f8

08004008 <hci_notify_asynch_evt>:
 8004008:	b500      	push	{lr}
 800400a:	b083      	sub	sp, #12
 800400c:	2300      	movs	r3, #0
 800400e:	9301      	str	r3, [sp, #4]
 8004010:	4819      	ldr	r0, [pc, #100]	; (8004078 <hci_notify_asynch_evt+0x70>)
 8004012:	f000 f83a 	bl	800408a <list_is_empty>
 8004016:	b118      	cbz	r0, 8004020 <hci_notify_asynch_evt+0x18>
 8004018:	2001      	movs	r0, #1
 800401a:	b003      	add	sp, #12
 800401c:	f85d fb04 	ldr.w	pc, [sp], #4
 8004020:	a901      	add	r1, sp, #4
 8004022:	4815      	ldr	r0, [pc, #84]	; (8004078 <hci_notify_asynch_evt+0x70>)
 8004024:	f000 f860 	bl	80040e8 <list_remove_head>
 8004028:	4b14      	ldr	r3, [pc, #80]	; (800407c <hci_notify_asynch_evt+0x74>)
 800402a:	68db      	ldr	r3, [r3, #12]
 800402c:	b30b      	cbz	r3, 8004072 <hci_notify_asynch_evt+0x6a>
 800402e:	2180      	movs	r1, #128	; 0x80
 8004030:	9801      	ldr	r0, [sp, #4]
 8004032:	3008      	adds	r0, #8
 8004034:	4798      	blx	r3
 8004036:	f010 03ff 	ands.w	r3, r0, #255	; 0xff
 800403a:	d014      	beq.n	8004066 <hci_notify_asynch_evt+0x5e>
 800403c:	9901      	ldr	r1, [sp, #4]
 800403e:	f881 3088 	strb.w	r3, [r1, #136]	; 0x88
 8004042:	7a0b      	ldrb	r3, [r1, #8]
 8004044:	2b04      	cmp	r3, #4
 8004046:	d004      	beq.n	8004052 <hci_notify_asynch_evt+0x4a>
 8004048:	480b      	ldr	r0, [pc, #44]	; (8004078 <hci_notify_asynch_evt+0x70>)
 800404a:	f000 f829 	bl	80040a0 <list_insert_head>
 800404e:	2000      	movs	r0, #0
 8004050:	e7e3      	b.n	800401a <hci_notify_asynch_evt+0x12>
 8004052:	7a8b      	ldrb	r3, [r1, #10]
 8004054:	b2c0      	uxtb	r0, r0
 8004056:	3803      	subs	r0, #3
 8004058:	4283      	cmp	r3, r0
 800405a:	d1f5      	bne.n	8004048 <hci_notify_asynch_evt+0x40>
 800405c:	4808      	ldr	r0, [pc, #32]	; (8004080 <hci_notify_asynch_evt+0x78>)
 800405e:	f000 f82b 	bl	80040b8 <list_insert_tail>
 8004062:	2000      	movs	r0, #0
 8004064:	e7d9      	b.n	800401a <hci_notify_asynch_evt+0x12>
 8004066:	9901      	ldr	r1, [sp, #4]
 8004068:	4803      	ldr	r0, [pc, #12]	; (8004078 <hci_notify_asynch_evt+0x70>)
 800406a:	f000 f819 	bl	80040a0 <list_insert_head>
 800406e:	2000      	movs	r0, #0
 8004070:	e7d3      	b.n	800401a <hci_notify_asynch_evt+0x12>
 8004072:	2000      	movs	r0, #0
 8004074:	e7d1      	b.n	800401a <hci_notify_asynch_evt+0x12>
 8004076:	bf00      	nop
 8004078:	200008f8 	.word	0x200008f8
 800407c:	20000390 	.word	0x20000390
 8004080:	20000900 	.word	0x20000900

08004084 <list_init_head>:
 8004084:	6000      	str	r0, [r0, #0]
 8004086:	6040      	str	r0, [r0, #4]
 8004088:	4770      	bx	lr

0800408a <list_is_empty>:
 800408a:	f3ef 8210 	mrs	r2, PRIMASK
 800408e:	b672      	cpsid	i
 8004090:	6803      	ldr	r3, [r0, #0]
 8004092:	4283      	cmp	r3, r0
 8004094:	bf14      	ite	ne
 8004096:	2000      	movne	r0, #0
 8004098:	2001      	moveq	r0, #1
 800409a:	f382 8810 	msr	PRIMASK, r2
 800409e:	4770      	bx	lr

080040a0 <list_insert_head>:
 80040a0:	f3ef 8310 	mrs	r3, PRIMASK
 80040a4:	b672      	cpsid	i
 80040a6:	6802      	ldr	r2, [r0, #0]
 80040a8:	600a      	str	r2, [r1, #0]
 80040aa:	6048      	str	r0, [r1, #4]
 80040ac:	6001      	str	r1, [r0, #0]
 80040ae:	680a      	ldr	r2, [r1, #0]
 80040b0:	6051      	str	r1, [r2, #4]
 80040b2:	f383 8810 	msr	PRIMASK, r3
 80040b6:	4770      	bx	lr

080040b8 <list_insert_tail>:
 80040b8:	f3ef 8310 	mrs	r3, PRIMASK
 80040bc:	b672      	cpsid	i
 80040be:	6008      	str	r0, [r1, #0]
 80040c0:	6842      	ldr	r2, [r0, #4]
 80040c2:	604a      	str	r2, [r1, #4]
 80040c4:	6041      	str	r1, [r0, #4]
 80040c6:	684a      	ldr	r2, [r1, #4]
 80040c8:	6011      	str	r1, [r2, #0]
 80040ca:	f383 8810 	msr	PRIMASK, r3
 80040ce:	4770      	bx	lr

080040d0 <list_remove_node>:
 80040d0:	f3ef 8310 	mrs	r3, PRIMASK
 80040d4:	b672      	cpsid	i
 80040d6:	6842      	ldr	r2, [r0, #4]
 80040d8:	6801      	ldr	r1, [r0, #0]
 80040da:	6011      	str	r1, [r2, #0]
 80040dc:	6802      	ldr	r2, [r0, #0]
 80040de:	6841      	ldr	r1, [r0, #4]
 80040e0:	6051      	str	r1, [r2, #4]
 80040e2:	f383 8810 	msr	PRIMASK, r3
 80040e6:	4770      	bx	lr

080040e8 <list_remove_head>:
 80040e8:	b538      	push	{r3, r4, r5, lr}
 80040ea:	460c      	mov	r4, r1
 80040ec:	f3ef 8510 	mrs	r5, PRIMASK
 80040f0:	b672      	cpsid	i
 80040f2:	6803      	ldr	r3, [r0, #0]
 80040f4:	600b      	str	r3, [r1, #0]
 80040f6:	6800      	ldr	r0, [r0, #0]
 80040f8:	f7ff ffea 	bl	80040d0 <list_remove_node>
 80040fc:	6822      	ldr	r2, [r4, #0]
 80040fe:	2300      	movs	r3, #0
 8004100:	6013      	str	r3, [r2, #0]
 8004102:	6822      	ldr	r2, [r4, #0]
 8004104:	6053      	str	r3, [r2, #4]
 8004106:	f385 8810 	msr	PRIMASK, r5
 800410a:	bd38      	pop	{r3, r4, r5, pc}

0800410c <list_remove_tail>:
 800410c:	b538      	push	{r3, r4, r5, lr}
 800410e:	460c      	mov	r4, r1
 8004110:	f3ef 8510 	mrs	r5, PRIMASK
 8004114:	b672      	cpsid	i
 8004116:	6843      	ldr	r3, [r0, #4]
 8004118:	600b      	str	r3, [r1, #0]
 800411a:	6840      	ldr	r0, [r0, #4]
 800411c:	f7ff ffd8 	bl	80040d0 <list_remove_node>
 8004120:	6822      	ldr	r2, [r4, #0]
 8004122:	2300      	movs	r3, #0
 8004124:	6013      	str	r3, [r2, #0]
 8004126:	6822      	ldr	r2, [r4, #0]
 8004128:	6053      	str	r3, [r2, #4]
 800412a:	f385 8810 	msr	PRIMASK, r5
 800412e:	bd38      	pop	{r3, r4, r5, pc}

08004130 <list_get_size>:
 8004130:	f3ef 8110 	mrs	r1, PRIMASK
 8004134:	b672      	cpsid	i
 8004136:	6803      	ldr	r3, [r0, #0]
 8004138:	4298      	cmp	r0, r3
 800413a:	d008      	beq.n	800414e <list_get_size+0x1e>
 800413c:	2200      	movs	r2, #0
 800413e:	3201      	adds	r2, #1
 8004140:	681b      	ldr	r3, [r3, #0]
 8004142:	4298      	cmp	r0, r3
 8004144:	d1fb      	bne.n	800413e <list_get_size+0xe>
 8004146:	f381 8810 	msr	PRIMASK, r1
 800414a:	4610      	mov	r0, r2
 800414c:	4770      	bx	lr
 800414e:	2200      	movs	r2, #0
 8004150:	e7f9      	b.n	8004146 <list_get_size+0x16>

08004152 <atoi>:
 8004152:	220a      	movs	r2, #10
 8004154:	2100      	movs	r1, #0
 8004156:	f000 b979 	b.w	800444c <strtol>
	...

0800415c <__errno>:
 800415c:	4b01      	ldr	r3, [pc, #4]	; (8004164 <__errno+0x8>)
 800415e:	6818      	ldr	r0, [r3, #0]
 8004160:	4770      	bx	lr
 8004162:	bf00      	nop
 8004164:	20000048 	.word	0x20000048

08004168 <__libc_init_array>:
 8004168:	b570      	push	{r4, r5, r6, lr}
 800416a:	4e0d      	ldr	r6, [pc, #52]	; (80041a0 <__libc_init_array+0x38>)
 800416c:	4c0d      	ldr	r4, [pc, #52]	; (80041a4 <__libc_init_array+0x3c>)
 800416e:	1ba4      	subs	r4, r4, r6
 8004170:	10a4      	asrs	r4, r4, #2
 8004172:	2500      	movs	r5, #0
 8004174:	42a5      	cmp	r5, r4
 8004176:	d109      	bne.n	800418c <__libc_init_array+0x24>
 8004178:	4e0b      	ldr	r6, [pc, #44]	; (80041a8 <__libc_init_array+0x40>)
 800417a:	4c0c      	ldr	r4, [pc, #48]	; (80041ac <__libc_init_array+0x44>)
 800417c:	f000 fa14 	bl	80045a8 <_init>
 8004180:	1ba4      	subs	r4, r4, r6
 8004182:	10a4      	asrs	r4, r4, #2
 8004184:	2500      	movs	r5, #0
 8004186:	42a5      	cmp	r5, r4
 8004188:	d105      	bne.n	8004196 <__libc_init_array+0x2e>
 800418a:	bd70      	pop	{r4, r5, r6, pc}
 800418c:	f856 3025 	ldr.w	r3, [r6, r5, lsl #2]
 8004190:	4798      	blx	r3
 8004192:	3501      	adds	r5, #1
 8004194:	e7ee      	b.n	8004174 <__libc_init_array+0xc>
 8004196:	f856 3025 	ldr.w	r3, [r6, r5, lsl #2]
 800419a:	4798      	blx	r3
 800419c:	3501      	adds	r5, #1
 800419e:	e7f2      	b.n	8004186 <__libc_init_array+0x1e>
 80041a0:	0800489c 	.word	0x0800489c
 80041a4:	0800489c 	.word	0x0800489c
 80041a8:	0800489c 	.word	0x0800489c
 80041ac:	080048a0 	.word	0x080048a0

080041b0 <memcpy>:
 80041b0:	b510      	push	{r4, lr}
 80041b2:	1e43      	subs	r3, r0, #1
 80041b4:	440a      	add	r2, r1
 80041b6:	4291      	cmp	r1, r2
 80041b8:	d100      	bne.n	80041bc <memcpy+0xc>
 80041ba:	bd10      	pop	{r4, pc}
 80041bc:	f811 4b01 	ldrb.w	r4, [r1], #1
 80041c0:	f803 4f01 	strb.w	r4, [r3, #1]!
 80041c4:	e7f7      	b.n	80041b6 <memcpy+0x6>

080041c6 <memset>:
 80041c6:	4402      	add	r2, r0
 80041c8:	4603      	mov	r3, r0
 80041ca:	4293      	cmp	r3, r2
 80041cc:	d100      	bne.n	80041d0 <memset+0xa>
 80041ce:	4770      	bx	lr
 80041d0:	f803 1b01 	strb.w	r1, [r3], #1
 80041d4:	e7f9      	b.n	80041ca <memset+0x4>
	...

080041d8 <srand>:
 80041d8:	b538      	push	{r3, r4, r5, lr}
 80041da:	4b0d      	ldr	r3, [pc, #52]	; (8004210 <srand+0x38>)
 80041dc:	681c      	ldr	r4, [r3, #0]
 80041de:	6ba3      	ldr	r3, [r4, #56]	; 0x38
 80041e0:	4605      	mov	r5, r0
 80041e2:	b97b      	cbnz	r3, 8004204 <srand+0x2c>
 80041e4:	2018      	movs	r0, #24
 80041e6:	f000 f94b 	bl	8004480 <malloc>
 80041ea:	4a0a      	ldr	r2, [pc, #40]	; (8004214 <srand+0x3c>)
 80041ec:	4b0a      	ldr	r3, [pc, #40]	; (8004218 <srand+0x40>)
 80041ee:	63a0      	str	r0, [r4, #56]	; 0x38
 80041f0:	e9c0 2300 	strd	r2, r3, [r0]
 80041f4:	4b09      	ldr	r3, [pc, #36]	; (800421c <srand+0x44>)
 80041f6:	6083      	str	r3, [r0, #8]
 80041f8:	230b      	movs	r3, #11
 80041fa:	8183      	strh	r3, [r0, #12]
 80041fc:	2201      	movs	r2, #1
 80041fe:	2300      	movs	r3, #0
 8004200:	e9c0 2304 	strd	r2, r3, [r0, #16]
 8004204:	6ba3      	ldr	r3, [r4, #56]	; 0x38
 8004206:	2200      	movs	r2, #0
 8004208:	611d      	str	r5, [r3, #16]
 800420a:	615a      	str	r2, [r3, #20]
 800420c:	bd38      	pop	{r3, r4, r5, pc}
 800420e:	bf00      	nop
 8004210:	20000048 	.word	0x20000048
 8004214:	abcd330e 	.word	0xabcd330e
 8004218:	e66d1234 	.word	0xe66d1234
 800421c:	0005deec 	.word	0x0005deec

08004220 <rand>:
 8004220:	b538      	push	{r3, r4, r5, lr}
 8004222:	4b13      	ldr	r3, [pc, #76]	; (8004270 <rand+0x50>)
 8004224:	681c      	ldr	r4, [r3, #0]
 8004226:	6ba3      	ldr	r3, [r4, #56]	; 0x38
 8004228:	b97b      	cbnz	r3, 800424a <rand+0x2a>
 800422a:	2018      	movs	r0, #24
 800422c:	f000 f928 	bl	8004480 <malloc>
 8004230:	4a10      	ldr	r2, [pc, #64]	; (8004274 <rand+0x54>)
 8004232:	4b11      	ldr	r3, [pc, #68]	; (8004278 <rand+0x58>)
 8004234:	63a0      	str	r0, [r4, #56]	; 0x38
 8004236:	e9c0 2300 	strd	r2, r3, [r0]
 800423a:	4b10      	ldr	r3, [pc, #64]	; (800427c <rand+0x5c>)
 800423c:	6083      	str	r3, [r0, #8]
 800423e:	230b      	movs	r3, #11
 8004240:	8183      	strh	r3, [r0, #12]
 8004242:	2201      	movs	r2, #1
 8004244:	2300      	movs	r3, #0
 8004246:	e9c0 2304 	strd	r2, r3, [r0, #16]
 800424a:	6ba1      	ldr	r1, [r4, #56]	; 0x38
 800424c:	480c      	ldr	r0, [pc, #48]	; (8004280 <rand+0x60>)
 800424e:	690a      	ldr	r2, [r1, #16]
 8004250:	694b      	ldr	r3, [r1, #20]
 8004252:	4c0c      	ldr	r4, [pc, #48]	; (8004284 <rand+0x64>)
 8004254:	4350      	muls	r0, r2
 8004256:	fb04 0003 	mla	r0, r4, r3, r0
 800425a:	fba2 2304 	umull	r2, r3, r2, r4
 800425e:	4403      	add	r3, r0
 8004260:	1c54      	adds	r4, r2, #1
 8004262:	f143 0500 	adc.w	r5, r3, #0
 8004266:	e9c1 4504 	strd	r4, r5, [r1, #16]
 800426a:	f025 4000 	bic.w	r0, r5, #2147483648	; 0x80000000
 800426e:	bd38      	pop	{r3, r4, r5, pc}
 8004270:	20000048 	.word	0x20000048
 8004274:	abcd330e 	.word	0xabcd330e
 8004278:	e66d1234 	.word	0xe66d1234
 800427c:	0005deec 	.word	0x0005deec
 8004280:	5851f42d 	.word	0x5851f42d
 8004284:	4c957f2d 	.word	0x4c957f2d

08004288 <strspn>:
 8004288:	b570      	push	{r4, r5, r6, lr}
 800428a:	4603      	mov	r3, r0
 800428c:	461a      	mov	r2, r3
 800428e:	f812 5b01 	ldrb.w	r5, [r2], #1
 8004292:	b13d      	cbz	r5, 80042a4 <strspn+0x1c>
 8004294:	1e4c      	subs	r4, r1, #1
 8004296:	e001      	b.n	800429c <strspn+0x14>
 8004298:	42ae      	cmp	r6, r5
 800429a:	d005      	beq.n	80042a8 <strspn+0x20>
 800429c:	f814 6f01 	ldrb.w	r6, [r4, #1]!
 80042a0:	2e00      	cmp	r6, #0
 80042a2:	d1f9      	bne.n	8004298 <strspn+0x10>
 80042a4:	1a18      	subs	r0, r3, r0
 80042a6:	bd70      	pop	{r4, r5, r6, pc}
 80042a8:	4613      	mov	r3, r2
 80042aa:	e7ef      	b.n	800428c <strspn+0x4>

080042ac <strtok>:
 80042ac:	4b13      	ldr	r3, [pc, #76]	; (80042fc <strtok+0x50>)
 80042ae:	e92d 41f0 	stmdb	sp!, {r4, r5, r6, r7, r8, lr}
 80042b2:	681d      	ldr	r5, [r3, #0]
 80042b4:	6dac      	ldr	r4, [r5, #88]	; 0x58
 80042b6:	4606      	mov	r6, r0
 80042b8:	460f      	mov	r7, r1
 80042ba:	b9b4      	cbnz	r4, 80042ea <strtok+0x3e>
 80042bc:	2050      	movs	r0, #80	; 0x50
 80042be:	f000 f8df 	bl	8004480 <malloc>
 80042c2:	65a8      	str	r0, [r5, #88]	; 0x58
 80042c4:	e9c0 4400 	strd	r4, r4, [r0]
 80042c8:	e9c0 4402 	strd	r4, r4, [r0, #8]
 80042cc:	e9c0 4404 	strd	r4, r4, [r0, #16]
 80042d0:	e9c0 440a 	strd	r4, r4, [r0, #40]	; 0x28
 80042d4:	e9c0 440c 	strd	r4, r4, [r0, #48]	; 0x30
 80042d8:	e9c0 440e 	strd	r4, r4, [r0, #56]	; 0x38
 80042dc:	e9c0 4410 	strd	r4, r4, [r0, #64]	; 0x40
 80042e0:	e9c0 4412 	strd	r4, r4, [r0, #72]	; 0x48
 80042e4:	6184      	str	r4, [r0, #24]
 80042e6:	7704      	strb	r4, [r0, #28]
 80042e8:	6244      	str	r4, [r0, #36]	; 0x24
 80042ea:	6daa      	ldr	r2, [r5, #88]	; 0x58
 80042ec:	4639      	mov	r1, r7
 80042ee:	4630      	mov	r0, r6
 80042f0:	2301      	movs	r3, #1
 80042f2:	e8bd 41f0 	ldmia.w	sp!, {r4, r5, r6, r7, r8, lr}
 80042f6:	f000 b803 	b.w	8004300 <__strtok_r>
 80042fa:	bf00      	nop
 80042fc:	20000048 	.word	0x20000048

08004300 <__strtok_r>:
 8004300:	b5f0      	push	{r4, r5, r6, r7, lr}
 8004302:	b918      	cbnz	r0, 800430c <__strtok_r+0xc>
 8004304:	6810      	ldr	r0, [r2, #0]
 8004306:	b908      	cbnz	r0, 800430c <__strtok_r+0xc>
 8004308:	bdf0      	pop	{r4, r5, r6, r7, pc}
 800430a:	4620      	mov	r0, r4
 800430c:	4604      	mov	r4, r0
 800430e:	460f      	mov	r7, r1
 8004310:	f814 5b01 	ldrb.w	r5, [r4], #1
 8004314:	f817 6b01 	ldrb.w	r6, [r7], #1
 8004318:	b91e      	cbnz	r6, 8004322 <__strtok_r+0x22>
 800431a:	b96d      	cbnz	r5, 8004338 <__strtok_r+0x38>
 800431c:	6015      	str	r5, [r2, #0]
 800431e:	4628      	mov	r0, r5
 8004320:	e7f2      	b.n	8004308 <__strtok_r+0x8>
 8004322:	42b5      	cmp	r5, r6
 8004324:	d1f6      	bne.n	8004314 <__strtok_r+0x14>
 8004326:	2b00      	cmp	r3, #0
 8004328:	d1ef      	bne.n	800430a <__strtok_r+0xa>
 800432a:	6014      	str	r4, [r2, #0]
 800432c:	7003      	strb	r3, [r0, #0]
 800432e:	e7eb      	b.n	8004308 <__strtok_r+0x8>
 8004330:	462b      	mov	r3, r5
 8004332:	e00d      	b.n	8004350 <__strtok_r+0x50>
 8004334:	b926      	cbnz	r6, 8004340 <__strtok_r+0x40>
 8004336:	461c      	mov	r4, r3
 8004338:	4623      	mov	r3, r4
 800433a:	460f      	mov	r7, r1
 800433c:	f813 5b01 	ldrb.w	r5, [r3], #1
 8004340:	f817 6b01 	ldrb.w	r6, [r7], #1
 8004344:	42b5      	cmp	r5, r6
 8004346:	d1f5      	bne.n	8004334 <__strtok_r+0x34>
 8004348:	2d00      	cmp	r5, #0
 800434a:	d0f1      	beq.n	8004330 <__strtok_r+0x30>
 800434c:	2100      	movs	r1, #0
 800434e:	7021      	strb	r1, [r4, #0]
 8004350:	6013      	str	r3, [r2, #0]
 8004352:	e7d9      	b.n	8004308 <__strtok_r+0x8>

08004354 <_strtol_l.isra.0>:
 8004354:	e92d 47f0 	stmdb	sp!, {r4, r5, r6, r7, r8, r9, sl, lr}
 8004358:	4680      	mov	r8, r0
 800435a:	4689      	mov	r9, r1
 800435c:	4692      	mov	sl, r2
 800435e:	461e      	mov	r6, r3
 8004360:	460f      	mov	r7, r1
 8004362:	463d      	mov	r5, r7
 8004364:	9808      	ldr	r0, [sp, #32]
 8004366:	f815 4b01 	ldrb.w	r4, [r5], #1
 800436a:	f000 f885 	bl	8004478 <__locale_ctype_ptr_l>
 800436e:	4420      	add	r0, r4
 8004370:	7843      	ldrb	r3, [r0, #1]
 8004372:	f013 0308 	ands.w	r3, r3, #8
 8004376:	d132      	bne.n	80043de <_strtol_l.isra.0+0x8a>
 8004378:	2c2d      	cmp	r4, #45	; 0x2d
 800437a:	d132      	bne.n	80043e2 <_strtol_l.isra.0+0x8e>
 800437c:	787c      	ldrb	r4, [r7, #1]
 800437e:	1cbd      	adds	r5, r7, #2
 8004380:	2201      	movs	r2, #1
 8004382:	2e00      	cmp	r6, #0
 8004384:	d05d      	beq.n	8004442 <_strtol_l.isra.0+0xee>
 8004386:	2e10      	cmp	r6, #16
 8004388:	d109      	bne.n	800439e <_strtol_l.isra.0+0x4a>
 800438a:	2c30      	cmp	r4, #48	; 0x30
 800438c:	d107      	bne.n	800439e <_strtol_l.isra.0+0x4a>
 800438e:	782b      	ldrb	r3, [r5, #0]
 8004390:	f003 03df 	and.w	r3, r3, #223	; 0xdf
 8004394:	2b58      	cmp	r3, #88	; 0x58
 8004396:	d14f      	bne.n	8004438 <_strtol_l.isra.0+0xe4>
 8004398:	786c      	ldrb	r4, [r5, #1]
 800439a:	2610      	movs	r6, #16
 800439c:	3502      	adds	r5, #2
 800439e:	2a00      	cmp	r2, #0
 80043a0:	bf14      	ite	ne
 80043a2:	f04f 4100 	movne.w	r1, #2147483648	; 0x80000000
 80043a6:	f06f 4100 	mvneq.w	r1, #2147483648	; 0x80000000
 80043aa:	2700      	movs	r7, #0
 80043ac:	fbb1 fcf6 	udiv	ip, r1, r6
 80043b0:	4638      	mov	r0, r7
 80043b2:	fb06 1e1c 	mls	lr, r6, ip, r1
 80043b6:	f1a4 0330 	sub.w	r3, r4, #48	; 0x30
 80043ba:	2b09      	cmp	r3, #9
 80043bc:	d817      	bhi.n	80043ee <_strtol_l.isra.0+0x9a>
 80043be:	461c      	mov	r4, r3
 80043c0:	42a6      	cmp	r6, r4
 80043c2:	dd23      	ble.n	800440c <_strtol_l.isra.0+0xb8>
 80043c4:	1c7b      	adds	r3, r7, #1
 80043c6:	d007      	beq.n	80043d8 <_strtol_l.isra.0+0x84>
 80043c8:	4584      	cmp	ip, r0
 80043ca:	d31c      	bcc.n	8004406 <_strtol_l.isra.0+0xb2>
 80043cc:	d101      	bne.n	80043d2 <_strtol_l.isra.0+0x7e>
 80043ce:	45a6      	cmp	lr, r4
 80043d0:	db19      	blt.n	8004406 <_strtol_l.isra.0+0xb2>
 80043d2:	fb00 4006 	mla	r0, r0, r6, r4
 80043d6:	2701      	movs	r7, #1
 80043d8:	f815 4b01 	ldrb.w	r4, [r5], #1
 80043dc:	e7eb      	b.n	80043b6 <_strtol_l.isra.0+0x62>
 80043de:	462f      	mov	r7, r5
 80043e0:	e7bf      	b.n	8004362 <_strtol_l.isra.0+0xe>
 80043e2:	2c2b      	cmp	r4, #43	; 0x2b
 80043e4:	bf04      	itt	eq
 80043e6:	1cbd      	addeq	r5, r7, #2
 80043e8:	787c      	ldrbeq	r4, [r7, #1]
 80043ea:	461a      	mov	r2, r3
 80043ec:	e7c9      	b.n	8004382 <_strtol_l.isra.0+0x2e>
 80043ee:	f1a4 0341 	sub.w	r3, r4, #65	; 0x41
 80043f2:	2b19      	cmp	r3, #25
 80043f4:	d801      	bhi.n	80043fa <_strtol_l.isra.0+0xa6>
 80043f6:	3c37      	subs	r4, #55	; 0x37
 80043f8:	e7e2      	b.n	80043c0 <_strtol_l.isra.0+0x6c>
 80043fa:	f1a4 0361 	sub.w	r3, r4, #97	; 0x61
 80043fe:	2b19      	cmp	r3, #25
 8004400:	d804      	bhi.n	800440c <_strtol_l.isra.0+0xb8>
 8004402:	3c57      	subs	r4, #87	; 0x57
 8004404:	e7dc      	b.n	80043c0 <_strtol_l.isra.0+0x6c>
 8004406:	f04f 37ff 	mov.w	r7, #4294967295
 800440a:	e7e5      	b.n	80043d8 <_strtol_l.isra.0+0x84>
 800440c:	1c7b      	adds	r3, r7, #1
 800440e:	d108      	bne.n	8004422 <_strtol_l.isra.0+0xce>
 8004410:	2322      	movs	r3, #34	; 0x22
 8004412:	f8c8 3000 	str.w	r3, [r8]
 8004416:	4608      	mov	r0, r1
 8004418:	f1ba 0f00 	cmp.w	sl, #0
 800441c:	d107      	bne.n	800442e <_strtol_l.isra.0+0xda>
 800441e:	e8bd 87f0 	ldmia.w	sp!, {r4, r5, r6, r7, r8, r9, sl, pc}
 8004422:	b102      	cbz	r2, 8004426 <_strtol_l.isra.0+0xd2>
 8004424:	4240      	negs	r0, r0
 8004426:	f1ba 0f00 	cmp.w	sl, #0
 800442a:	d0f8      	beq.n	800441e <_strtol_l.isra.0+0xca>
 800442c:	b10f      	cbz	r7, 8004432 <_strtol_l.isra.0+0xde>
 800442e:	f105 39ff 	add.w	r9, r5, #4294967295
 8004432:	f8ca 9000 	str.w	r9, [sl]
 8004436:	e7f2      	b.n	800441e <_strtol_l.isra.0+0xca>
 8004438:	2430      	movs	r4, #48	; 0x30
 800443a:	2e00      	cmp	r6, #0
 800443c:	d1af      	bne.n	800439e <_strtol_l.isra.0+0x4a>
 800443e:	2608      	movs	r6, #8
 8004440:	e7ad      	b.n	800439e <_strtol_l.isra.0+0x4a>
 8004442:	2c30      	cmp	r4, #48	; 0x30
 8004444:	d0a3      	beq.n	800438e <_strtol_l.isra.0+0x3a>
 8004446:	260a      	movs	r6, #10
 8004448:	e7a9      	b.n	800439e <_strtol_l.isra.0+0x4a>
	...

0800444c <strtol>:
 800444c:	4b08      	ldr	r3, [pc, #32]	; (8004470 <strtol+0x24>)
 800444e:	b537      	push	{r0, r1, r2, r4, r5, lr}
 8004450:	681c      	ldr	r4, [r3, #0]
 8004452:	4d08      	ldr	r5, [pc, #32]	; (8004474 <strtol+0x28>)
 8004454:	6a23      	ldr	r3, [r4, #32]
 8004456:	2b00      	cmp	r3, #0
 8004458:	bf08      	it	eq
 800445a:	462b      	moveq	r3, r5
 800445c:	9300      	str	r3, [sp, #0]
 800445e:	4613      	mov	r3, r2
 8004460:	460a      	mov	r2, r1
 8004462:	4601      	mov	r1, r0
 8004464:	4620      	mov	r0, r4
 8004466:	f7ff ff75 	bl	8004354 <_strtol_l.isra.0>
 800446a:	b003      	add	sp, #12
 800446c:	bd30      	pop	{r4, r5, pc}
 800446e:	bf00      	nop
 8004470:	20000048 	.word	0x20000048
 8004474:	200000ac 	.word	0x200000ac

08004478 <__locale_ctype_ptr_l>:
 8004478:	f8d0 00ec 	ldr.w	r0, [r0, #236]	; 0xec
 800447c:	4770      	bx	lr
	...

08004480 <malloc>:
 8004480:	4b02      	ldr	r3, [pc, #8]	; (800448c <malloc+0xc>)
 8004482:	4601      	mov	r1, r0
 8004484:	6818      	ldr	r0, [r3, #0]
 8004486:	f000 b815 	b.w	80044b4 <_malloc_r>
 800448a:	bf00      	nop
 800448c:	20000048 	.word	0x20000048

08004490 <__ascii_mbtowc>:
 8004490:	b082      	sub	sp, #8
 8004492:	b901      	cbnz	r1, 8004496 <__ascii_mbtowc+0x6>
 8004494:	a901      	add	r1, sp, #4
 8004496:	b142      	cbz	r2, 80044aa <__ascii_mbtowc+0x1a>
 8004498:	b14b      	cbz	r3, 80044ae <__ascii_mbtowc+0x1e>
 800449a:	7813      	ldrb	r3, [r2, #0]
 800449c:	600b      	str	r3, [r1, #0]
 800449e:	7812      	ldrb	r2, [r2, #0]
 80044a0:	1c10      	adds	r0, r2, #0
 80044a2:	bf18      	it	ne
 80044a4:	2001      	movne	r0, #1
 80044a6:	b002      	add	sp, #8
 80044a8:	4770      	bx	lr
 80044aa:	4610      	mov	r0, r2
 80044ac:	e7fb      	b.n	80044a6 <__ascii_mbtowc+0x16>
 80044ae:	f06f 0001 	mvn.w	r0, #1
 80044b2:	e7f8      	b.n	80044a6 <__ascii_mbtowc+0x16>

080044b4 <_malloc_r>:
 80044b4:	b570      	push	{r4, r5, r6, lr}
 80044b6:	1ccd      	adds	r5, r1, #3
 80044b8:	f025 0503 	bic.w	r5, r5, #3
 80044bc:	3508      	adds	r5, #8
 80044be:	2d0c      	cmp	r5, #12
 80044c0:	bf38      	it	cc
 80044c2:	250c      	movcc	r5, #12
 80044c4:	2d00      	cmp	r5, #0
 80044c6:	4606      	mov	r6, r0
 80044c8:	db01      	blt.n	80044ce <_malloc_r+0x1a>
 80044ca:	42a9      	cmp	r1, r5
 80044cc:	d903      	bls.n	80044d6 <_malloc_r+0x22>
 80044ce:	230c      	movs	r3, #12
 80044d0:	6033      	str	r3, [r6, #0]
 80044d2:	2000      	movs	r0, #0
 80044d4:	bd70      	pop	{r4, r5, r6, pc}
 80044d6:	f000 f864 	bl	80045a2 <__malloc_lock>
 80044da:	4a21      	ldr	r2, [pc, #132]	; (8004560 <_malloc_r+0xac>)
 80044dc:	6814      	ldr	r4, [r2, #0]
 80044de:	4621      	mov	r1, r4
 80044e0:	b991      	cbnz	r1, 8004508 <_malloc_r+0x54>
 80044e2:	4c20      	ldr	r4, [pc, #128]	; (8004564 <_malloc_r+0xb0>)
 80044e4:	6823      	ldr	r3, [r4, #0]
 80044e6:	b91b      	cbnz	r3, 80044f0 <_malloc_r+0x3c>
 80044e8:	4630      	mov	r0, r6
 80044ea:	f000 f83d 	bl	8004568 <_sbrk_r>
 80044ee:	6020      	str	r0, [r4, #0]
 80044f0:	4629      	mov	r1, r5
 80044f2:	4630      	mov	r0, r6
 80044f4:	f000 f838 	bl	8004568 <_sbrk_r>
 80044f8:	1c43      	adds	r3, r0, #1
 80044fa:	d124      	bne.n	8004546 <_malloc_r+0x92>
 80044fc:	230c      	movs	r3, #12
 80044fe:	6033      	str	r3, [r6, #0]
 8004500:	4630      	mov	r0, r6
 8004502:	f000 f84f 	bl	80045a4 <__malloc_unlock>
 8004506:	e7e4      	b.n	80044d2 <_malloc_r+0x1e>
 8004508:	680b      	ldr	r3, [r1, #0]
 800450a:	1b5b      	subs	r3, r3, r5
 800450c:	d418      	bmi.n	8004540 <_malloc_r+0x8c>
 800450e:	2b0b      	cmp	r3, #11
 8004510:	d90f      	bls.n	8004532 <_malloc_r+0x7e>
 8004512:	600b      	str	r3, [r1, #0]
 8004514:	50cd      	str	r5, [r1, r3]
 8004516:	18cc      	adds	r4, r1, r3
 8004518:	4630      	mov	r0, r6
 800451a:	f000 f843 	bl	80045a4 <__malloc_unlock>
 800451e:	f104 000b 	add.w	r0, r4, #11
 8004522:	1d23      	adds	r3, r4, #4
 8004524:	f020 0007 	bic.w	r0, r0, #7
 8004528:	1ac3      	subs	r3, r0, r3
 800452a:	d0d3      	beq.n	80044d4 <_malloc_r+0x20>
 800452c:	425a      	negs	r2, r3
 800452e:	50e2      	str	r2, [r4, r3]
 8004530:	e7d0      	b.n	80044d4 <_malloc_r+0x20>
 8004532:	428c      	cmp	r4, r1
 8004534:	684b      	ldr	r3, [r1, #4]
 8004536:	bf16      	itet	ne
 8004538:	6063      	strne	r3, [r4, #4]
 800453a:	6013      	streq	r3, [r2, #0]
 800453c:	460c      	movne	r4, r1
 800453e:	e7eb      	b.n	8004518 <_malloc_r+0x64>
 8004540:	460c      	mov	r4, r1
 8004542:	6849      	ldr	r1, [r1, #4]
 8004544:	e7cc      	b.n	80044e0 <_malloc_r+0x2c>
 8004546:	1cc4      	adds	r4, r0, #3
 8004548:	f024 0403 	bic.w	r4, r4, #3
 800454c:	42a0      	cmp	r0, r4
 800454e:	d005      	beq.n	800455c <_malloc_r+0xa8>
 8004550:	1a21      	subs	r1, r4, r0
 8004552:	4630      	mov	r0, r6
 8004554:	f000 f808 	bl	8004568 <_sbrk_r>
 8004558:	3001      	adds	r0, #1
 800455a:	d0cf      	beq.n	80044fc <_malloc_r+0x48>
 800455c:	6025      	str	r5, [r4, #0]
 800455e:	e7db      	b.n	8004518 <_malloc_r+0x64>
 8004560:	2000066c 	.word	0x2000066c
 8004564:	20000670 	.word	0x20000670

08004568 <_sbrk_r>:
 8004568:	b538      	push	{r3, r4, r5, lr}
 800456a:	4c06      	ldr	r4, [pc, #24]	; (8004584 <_sbrk_r+0x1c>)
 800456c:	2300      	movs	r3, #0
 800456e:	4605      	mov	r5, r0
 8004570:	4608      	mov	r0, r1
 8004572:	6023      	str	r3, [r4, #0]
 8004574:	f7fd fa02 	bl	800197c <_sbrk>
 8004578:	1c43      	adds	r3, r0, #1
 800457a:	d102      	bne.n	8004582 <_sbrk_r+0x1a>
 800457c:	6823      	ldr	r3, [r4, #0]
 800457e:	b103      	cbz	r3, 8004582 <_sbrk_r+0x1a>
 8004580:	602b      	str	r3, [r5, #0]
 8004582:	bd38      	pop	{r3, r4, r5, pc}
 8004584:	20000908 	.word	0x20000908

08004588 <__ascii_wctomb>:
 8004588:	b149      	cbz	r1, 800459e <__ascii_wctomb+0x16>
 800458a:	2aff      	cmp	r2, #255	; 0xff
 800458c:	bf85      	ittet	hi
 800458e:	238a      	movhi	r3, #138	; 0x8a
 8004590:	6003      	strhi	r3, [r0, #0]
 8004592:	700a      	strbls	r2, [r1, #0]
 8004594:	f04f 30ff 	movhi.w	r0, #4294967295
 8004598:	bf98      	it	ls
 800459a:	2001      	movls	r0, #1
 800459c:	4770      	bx	lr
 800459e:	4608      	mov	r0, r1
 80045a0:	4770      	bx	lr

080045a2 <__malloc_lock>:
 80045a2:	4770      	bx	lr

080045a4 <__malloc_unlock>:
 80045a4:	4770      	bx	lr
	...

080045a8 <_init>:
 80045a8:	b5f8      	push	{r3, r4, r5, r6, r7, lr}
 80045aa:	bf00      	nop
 80045ac:	bcf8      	pop	{r3, r4, r5, r6, r7}
 80045ae:	bc08      	pop	{r3}
 80045b0:	469e      	mov	lr, r3
 80045b2:	4770      	bx	lr

080045b4 <_fini>:
 80045b4:	b5f8      	push	{r3, r4, r5, r6, r7, lr}
 80045b6:	bf00      	nop
 80045b8:	bcf8      	pop	{r3, r4, r5, r6, r7}
 80045ba:	bc08      	pop	{r3}
 80045bc:	469e      	mov	lr, r3
 80045be:	4770      	bx	lr
